ARM GAS  /tmp/cc5K8h45.s 			page 1


   1              		.cpu cortex-m0
   2              		.eabi_attribute 20, 1
   3              		.eabi_attribute 21, 1
   4              		.eabi_attribute 23, 3
   5              		.eabi_attribute 24, 1
   6              		.eabi_attribute 25, 1
   7              		.eabi_attribute 26, 1
   8              		.eabi_attribute 30, 4
   9              		.eabi_attribute 34, 0
  10              		.eabi_attribute 18, 4
  11              		.file	"main.cpp"
  12              		.text
  13              	.Ltext0:
  14              		.cfi_sections	.debug_frame
  15              		.section	.text.NVIC_EnableIRQ,"ax",%progbits
  16              		.align	1
  17              		.arch armv6s-m
  18              		.syntax unified
  19              		.code	16
  20              		.thumb_func
  21              		.fpu softvfp
  23              	NVIC_EnableIRQ:
  24              	.LVL0:
  25              	.LFB45:
  26              		.file 1 "mculib3/STM32F0_files/CMSIS/core_cm0.h"
   1:mculib3/STM32F0_files/CMSIS/core_cm0.h **** /**************************************************************************//**
   2:mculib3/STM32F0_files/CMSIS/core_cm0.h ****  * @file     core_cm0.h
   3:mculib3/STM32F0_files/CMSIS/core_cm0.h ****  * @brief    CMSIS Cortex-M0 Core Peripheral Access Layer Header File
   4:mculib3/STM32F0_files/CMSIS/core_cm0.h ****  * @version  V4.30
   5:mculib3/STM32F0_files/CMSIS/core_cm0.h ****  * @date     20. October 2015
   6:mculib3/STM32F0_files/CMSIS/core_cm0.h ****  ******************************************************************************/
   7:mculib3/STM32F0_files/CMSIS/core_cm0.h **** /* Copyright (c) 2009 - 2015 ARM LIMITED
   8:mculib3/STM32F0_files/CMSIS/core_cm0.h **** 
   9:mculib3/STM32F0_files/CMSIS/core_cm0.h ****    All rights reserved.
  10:mculib3/STM32F0_files/CMSIS/core_cm0.h ****    Redistribution and use in source and binary forms, with or without
  11:mculib3/STM32F0_files/CMSIS/core_cm0.h ****    modification, are permitted provided that the following conditions are met:
  12:mculib3/STM32F0_files/CMSIS/core_cm0.h ****    - Redistributions of source code must retain the above copyright
  13:mculib3/STM32F0_files/CMSIS/core_cm0.h ****      notice, this list of conditions and the following disclaimer.
  14:mculib3/STM32F0_files/CMSIS/core_cm0.h ****    - Redistributions in binary form must reproduce the above copyright
  15:mculib3/STM32F0_files/CMSIS/core_cm0.h ****      notice, this list of conditions and the following disclaimer in the
  16:mculib3/STM32F0_files/CMSIS/core_cm0.h ****      documentation and/or other materials provided with the distribution.
  17:mculib3/STM32F0_files/CMSIS/core_cm0.h ****    - Neither the name of ARM nor the names of its contributors may be used
  18:mculib3/STM32F0_files/CMSIS/core_cm0.h ****      to endorse or promote products derived from this software without
  19:mculib3/STM32F0_files/CMSIS/core_cm0.h ****      specific prior written permission.
  20:mculib3/STM32F0_files/CMSIS/core_cm0.h ****    *
  21:mculib3/STM32F0_files/CMSIS/core_cm0.h ****    THIS SOFTWARE IS PROVIDED BY THE COPYRIGHT HOLDERS AND CONTRIBUTORS "AS IS"
  22:mculib3/STM32F0_files/CMSIS/core_cm0.h ****    AND ANY EXPRESS OR IMPLIED WARRANTIES, INCLUDING, BUT NOT LIMITED TO, THE
  23:mculib3/STM32F0_files/CMSIS/core_cm0.h ****    IMPLIED WARRANTIES OF MERCHANTABILITY AND FITNESS FOR A PARTICULAR PURPOSE
  24:mculib3/STM32F0_files/CMSIS/core_cm0.h ****    ARE DISCLAIMED. IN NO EVENT SHALL COPYRIGHT HOLDERS AND CONTRIBUTORS BE
  25:mculib3/STM32F0_files/CMSIS/core_cm0.h ****    LIABLE FOR ANY DIRECT, INDIRECT, INCIDENTAL, SPECIAL, EXEMPLARY, OR
  26:mculib3/STM32F0_files/CMSIS/core_cm0.h ****    CONSEQUENTIAL DAMAGES (INCLUDING, BUT NOT LIMITED TO, PROCUREMENT OF
  27:mculib3/STM32F0_files/CMSIS/core_cm0.h ****    SUBSTITUTE GOODS OR SERVICES; LOSS OF USE, DATA, OR PROFITS; OR BUSINESS
  28:mculib3/STM32F0_files/CMSIS/core_cm0.h ****    INTERRUPTION) HOWEVER CAUSED AND ON ANY THEORY OF LIABILITY, WHETHER IN
  29:mculib3/STM32F0_files/CMSIS/core_cm0.h ****    CONTRACT, STRICT LIABILITY, OR TORT (INCLUDING NEGLIGENCE OR OTHERWISE)
  30:mculib3/STM32F0_files/CMSIS/core_cm0.h ****    ARISING IN ANY WAY OUT OF THE USE OF THIS SOFTWARE, EVEN IF ADVISED OF THE
  31:mculib3/STM32F0_files/CMSIS/core_cm0.h ****    POSSIBILITY OF SUCH DAMAGE.
  32:mculib3/STM32F0_files/CMSIS/core_cm0.h ****    ---------------------------------------------------------------------------*/
ARM GAS  /tmp/cc5K8h45.s 			page 2


  33:mculib3/STM32F0_files/CMSIS/core_cm0.h **** 
  34:mculib3/STM32F0_files/CMSIS/core_cm0.h **** 
  35:mculib3/STM32F0_files/CMSIS/core_cm0.h **** #if   defined ( __ICCARM__ )
  36:mculib3/STM32F0_files/CMSIS/core_cm0.h ****  #pragma system_include         /* treat file as system include file for MISRA check */
  37:mculib3/STM32F0_files/CMSIS/core_cm0.h **** #elif defined(__ARMCC_VERSION) && (__ARMCC_VERSION >= 6010050)
  38:mculib3/STM32F0_files/CMSIS/core_cm0.h ****   #pragma clang system_header   /* treat file as system include file */
  39:mculib3/STM32F0_files/CMSIS/core_cm0.h **** #endif
  40:mculib3/STM32F0_files/CMSIS/core_cm0.h **** 
  41:mculib3/STM32F0_files/CMSIS/core_cm0.h **** #ifndef __CORE_CM0_H_GENERIC
  42:mculib3/STM32F0_files/CMSIS/core_cm0.h **** #define __CORE_CM0_H_GENERIC
  43:mculib3/STM32F0_files/CMSIS/core_cm0.h **** 
  44:mculib3/STM32F0_files/CMSIS/core_cm0.h **** #include <stdint.h>
  45:mculib3/STM32F0_files/CMSIS/core_cm0.h **** 
  46:mculib3/STM32F0_files/CMSIS/core_cm0.h **** #ifdef __cplusplus
  47:mculib3/STM32F0_files/CMSIS/core_cm0.h ****  extern "C" {
  48:mculib3/STM32F0_files/CMSIS/core_cm0.h **** #endif
  49:mculib3/STM32F0_files/CMSIS/core_cm0.h **** 
  50:mculib3/STM32F0_files/CMSIS/core_cm0.h **** /**
  51:mculib3/STM32F0_files/CMSIS/core_cm0.h ****   \page CMSIS_MISRA_Exceptions  MISRA-C:2004 Compliance Exceptions
  52:mculib3/STM32F0_files/CMSIS/core_cm0.h ****   CMSIS violates the following MISRA-C:2004 rules:
  53:mculib3/STM32F0_files/CMSIS/core_cm0.h **** 
  54:mculib3/STM32F0_files/CMSIS/core_cm0.h ****    \li Required Rule 8.5, object/function definition in header file.<br>
  55:mculib3/STM32F0_files/CMSIS/core_cm0.h ****      Function definitions in header files are used to allow 'inlining'.
  56:mculib3/STM32F0_files/CMSIS/core_cm0.h **** 
  57:mculib3/STM32F0_files/CMSIS/core_cm0.h ****    \li Required Rule 18.4, declaration of union type or object of union type: '{...}'.<br>
  58:mculib3/STM32F0_files/CMSIS/core_cm0.h ****      Unions are used for effective representation of core registers.
  59:mculib3/STM32F0_files/CMSIS/core_cm0.h **** 
  60:mculib3/STM32F0_files/CMSIS/core_cm0.h ****    \li Advisory Rule 19.7, Function-like macro defined.<br>
  61:mculib3/STM32F0_files/CMSIS/core_cm0.h ****      Function-like macros are used to allow more efficient code.
  62:mculib3/STM32F0_files/CMSIS/core_cm0.h ****  */
  63:mculib3/STM32F0_files/CMSIS/core_cm0.h **** 
  64:mculib3/STM32F0_files/CMSIS/core_cm0.h **** 
  65:mculib3/STM32F0_files/CMSIS/core_cm0.h **** /*******************************************************************************
  66:mculib3/STM32F0_files/CMSIS/core_cm0.h ****  *                 CMSIS definitions
  67:mculib3/STM32F0_files/CMSIS/core_cm0.h ****  ******************************************************************************/
  68:mculib3/STM32F0_files/CMSIS/core_cm0.h **** /**
  69:mculib3/STM32F0_files/CMSIS/core_cm0.h ****   \ingroup Cortex_M0
  70:mculib3/STM32F0_files/CMSIS/core_cm0.h ****   @{
  71:mculib3/STM32F0_files/CMSIS/core_cm0.h ****  */
  72:mculib3/STM32F0_files/CMSIS/core_cm0.h **** 
  73:mculib3/STM32F0_files/CMSIS/core_cm0.h **** /*  CMSIS CM0 definitions */
  74:mculib3/STM32F0_files/CMSIS/core_cm0.h **** #define __CM0_CMSIS_VERSION_MAIN  (0x04U)                                      /*!< [31:16] CMSIS H
  75:mculib3/STM32F0_files/CMSIS/core_cm0.h **** #define __CM0_CMSIS_VERSION_SUB   (0x1EU)                                      /*!< [15:0]  CMSIS H
  76:mculib3/STM32F0_files/CMSIS/core_cm0.h **** #define __CM0_CMSIS_VERSION       ((__CM0_CMSIS_VERSION_MAIN << 16U) | \
  77:mculib3/STM32F0_files/CMSIS/core_cm0.h ****                                     __CM0_CMSIS_VERSION_SUB           )        /*!< CMSIS HAL versi
  78:mculib3/STM32F0_files/CMSIS/core_cm0.h **** 
  79:mculib3/STM32F0_files/CMSIS/core_cm0.h **** #define __CORTEX_M                (0x00U)                                      /*!< Cortex-M Core *
  80:mculib3/STM32F0_files/CMSIS/core_cm0.h **** 
  81:mculib3/STM32F0_files/CMSIS/core_cm0.h **** 
  82:mculib3/STM32F0_files/CMSIS/core_cm0.h **** #if   defined ( __CC_ARM )
  83:mculib3/STM32F0_files/CMSIS/core_cm0.h ****   #define __ASM            __asm                                      /*!< asm keyword for ARM Comp
  84:mculib3/STM32F0_files/CMSIS/core_cm0.h ****   #define __INLINE         __inline                                   /*!< inline keyword for ARM C
  85:mculib3/STM32F0_files/CMSIS/core_cm0.h ****   #define __STATIC_INLINE  static __inline
  86:mculib3/STM32F0_files/CMSIS/core_cm0.h **** 
  87:mculib3/STM32F0_files/CMSIS/core_cm0.h **** #elif defined(__ARMCC_VERSION) && (__ARMCC_VERSION >= 6010050)
  88:mculib3/STM32F0_files/CMSIS/core_cm0.h ****   #define __ASM            __asm                                      /*!< asm keyword for ARM Comp
  89:mculib3/STM32F0_files/CMSIS/core_cm0.h ****   #define __INLINE         __inline                                   /*!< inline keyword for ARM C
ARM GAS  /tmp/cc5K8h45.s 			page 3


  90:mculib3/STM32F0_files/CMSIS/core_cm0.h ****   #define __STATIC_INLINE  static __inline
  91:mculib3/STM32F0_files/CMSIS/core_cm0.h **** 
  92:mculib3/STM32F0_files/CMSIS/core_cm0.h **** #elif defined ( __GNUC__ )
  93:mculib3/STM32F0_files/CMSIS/core_cm0.h ****   #define __ASM            __asm                                      /*!< asm keyword for GNU Comp
  94:mculib3/STM32F0_files/CMSIS/core_cm0.h ****   #define __INLINE         inline                                     /*!< inline keyword for GNU C
  95:mculib3/STM32F0_files/CMSIS/core_cm0.h ****   #define __STATIC_INLINE  static inline
  96:mculib3/STM32F0_files/CMSIS/core_cm0.h **** 
  97:mculib3/STM32F0_files/CMSIS/core_cm0.h **** #elif defined ( __ICCARM__ )
  98:mculib3/STM32F0_files/CMSIS/core_cm0.h ****   #define __ASM            __asm                                      /*!< asm keyword for IAR Comp
  99:mculib3/STM32F0_files/CMSIS/core_cm0.h ****   #define __INLINE         inline                                     /*!< inline keyword for IAR C
 100:mculib3/STM32F0_files/CMSIS/core_cm0.h ****   #define __STATIC_INLINE  static inline
 101:mculib3/STM32F0_files/CMSIS/core_cm0.h **** 
 102:mculib3/STM32F0_files/CMSIS/core_cm0.h **** #elif defined ( __TMS470__ )
 103:mculib3/STM32F0_files/CMSIS/core_cm0.h ****   #define __ASM            __asm                                      /*!< asm keyword for TI CCS C
 104:mculib3/STM32F0_files/CMSIS/core_cm0.h ****   #define __STATIC_INLINE  static inline
 105:mculib3/STM32F0_files/CMSIS/core_cm0.h **** 
 106:mculib3/STM32F0_files/CMSIS/core_cm0.h **** #elif defined ( __TASKING__ )
 107:mculib3/STM32F0_files/CMSIS/core_cm0.h ****   #define __ASM            __asm                                      /*!< asm keyword for TASKING 
 108:mculib3/STM32F0_files/CMSIS/core_cm0.h ****   #define __INLINE         inline                                     /*!< inline keyword for TASKI
 109:mculib3/STM32F0_files/CMSIS/core_cm0.h ****   #define __STATIC_INLINE  static inline
 110:mculib3/STM32F0_files/CMSIS/core_cm0.h **** 
 111:mculib3/STM32F0_files/CMSIS/core_cm0.h **** #elif defined ( __CSMC__ )
 112:mculib3/STM32F0_files/CMSIS/core_cm0.h ****   #define __packed
 113:mculib3/STM32F0_files/CMSIS/core_cm0.h ****   #define __ASM            _asm                                      /*!< asm keyword for COSMIC Co
 114:mculib3/STM32F0_files/CMSIS/core_cm0.h ****   #define __INLINE         inline                                    /*!< inline keyword for COSMIC
 115:mculib3/STM32F0_files/CMSIS/core_cm0.h ****   #define __STATIC_INLINE  static inline
 116:mculib3/STM32F0_files/CMSIS/core_cm0.h **** 
 117:mculib3/STM32F0_files/CMSIS/core_cm0.h **** #else
 118:mculib3/STM32F0_files/CMSIS/core_cm0.h ****   #error Unknown compiler
 119:mculib3/STM32F0_files/CMSIS/core_cm0.h **** #endif
 120:mculib3/STM32F0_files/CMSIS/core_cm0.h **** 
 121:mculib3/STM32F0_files/CMSIS/core_cm0.h **** /** __FPU_USED indicates whether an FPU is used or not.
 122:mculib3/STM32F0_files/CMSIS/core_cm0.h ****     This core does not support an FPU at all
 123:mculib3/STM32F0_files/CMSIS/core_cm0.h **** */
 124:mculib3/STM32F0_files/CMSIS/core_cm0.h **** #define __FPU_USED       0U
 125:mculib3/STM32F0_files/CMSIS/core_cm0.h **** 
 126:mculib3/STM32F0_files/CMSIS/core_cm0.h **** #if defined ( __CC_ARM )
 127:mculib3/STM32F0_files/CMSIS/core_cm0.h ****   #if defined __TARGET_FPU_VFP
 128:mculib3/STM32F0_files/CMSIS/core_cm0.h ****     #error "Compiler generates FPU instructions for a device without an FPU (check __FPU_PRESENT)"
 129:mculib3/STM32F0_files/CMSIS/core_cm0.h ****   #endif
 130:mculib3/STM32F0_files/CMSIS/core_cm0.h **** 
 131:mculib3/STM32F0_files/CMSIS/core_cm0.h **** #elif defined(__ARMCC_VERSION) && (__ARMCC_VERSION >= 6010050)
 132:mculib3/STM32F0_files/CMSIS/core_cm0.h ****   #if defined __ARM_PCS_VFP
 133:mculib3/STM32F0_files/CMSIS/core_cm0.h ****     #error "Compiler generates FPU instructions for a device without an FPU (check __FPU_PRESENT)"
 134:mculib3/STM32F0_files/CMSIS/core_cm0.h ****   #endif
 135:mculib3/STM32F0_files/CMSIS/core_cm0.h **** 
 136:mculib3/STM32F0_files/CMSIS/core_cm0.h **** #elif defined ( __GNUC__ )
 137:mculib3/STM32F0_files/CMSIS/core_cm0.h ****   #if defined (__VFP_FP__) && !defined(__SOFTFP__)
 138:mculib3/STM32F0_files/CMSIS/core_cm0.h ****     #error "Compiler generates FPU instructions for a device without an FPU (check __FPU_PRESENT)"
 139:mculib3/STM32F0_files/CMSIS/core_cm0.h ****   #endif
 140:mculib3/STM32F0_files/CMSIS/core_cm0.h **** 
 141:mculib3/STM32F0_files/CMSIS/core_cm0.h **** #elif defined ( __ICCARM__ )
 142:mculib3/STM32F0_files/CMSIS/core_cm0.h ****   #if defined __ARMVFP__
 143:mculib3/STM32F0_files/CMSIS/core_cm0.h ****     #error "Compiler generates FPU instructions for a device without an FPU (check __FPU_PRESENT)"
 144:mculib3/STM32F0_files/CMSIS/core_cm0.h ****   #endif
 145:mculib3/STM32F0_files/CMSIS/core_cm0.h **** 
 146:mculib3/STM32F0_files/CMSIS/core_cm0.h **** #elif defined ( __TMS470__ )
ARM GAS  /tmp/cc5K8h45.s 			page 4


 147:mculib3/STM32F0_files/CMSIS/core_cm0.h ****   #if defined __TI_VFP_SUPPORT__
 148:mculib3/STM32F0_files/CMSIS/core_cm0.h ****     #error "Compiler generates FPU instructions for a device without an FPU (check __FPU_PRESENT)"
 149:mculib3/STM32F0_files/CMSIS/core_cm0.h ****   #endif
 150:mculib3/STM32F0_files/CMSIS/core_cm0.h **** 
 151:mculib3/STM32F0_files/CMSIS/core_cm0.h **** #elif defined ( __TASKING__ )
 152:mculib3/STM32F0_files/CMSIS/core_cm0.h ****   #if defined __FPU_VFP__
 153:mculib3/STM32F0_files/CMSIS/core_cm0.h ****     #error "Compiler generates FPU instructions for a device without an FPU (check __FPU_PRESENT)"
 154:mculib3/STM32F0_files/CMSIS/core_cm0.h ****   #endif
 155:mculib3/STM32F0_files/CMSIS/core_cm0.h **** 
 156:mculib3/STM32F0_files/CMSIS/core_cm0.h **** #elif defined ( __CSMC__ )
 157:mculib3/STM32F0_files/CMSIS/core_cm0.h ****   #if ( __CSMC__ & 0x400U)
 158:mculib3/STM32F0_files/CMSIS/core_cm0.h ****     #error "Compiler generates FPU instructions for a device without an FPU (check __FPU_PRESENT)"
 159:mculib3/STM32F0_files/CMSIS/core_cm0.h ****   #endif
 160:mculib3/STM32F0_files/CMSIS/core_cm0.h **** 
 161:mculib3/STM32F0_files/CMSIS/core_cm0.h **** #endif
 162:mculib3/STM32F0_files/CMSIS/core_cm0.h **** 
 163:mculib3/STM32F0_files/CMSIS/core_cm0.h **** #include "core_cmInstr.h"                /* Core Instruction Access */
 164:mculib3/STM32F0_files/CMSIS/core_cm0.h **** #include "core_cmFunc.h"                 /* Core Function Access */
 165:mculib3/STM32F0_files/CMSIS/core_cm0.h **** 
 166:mculib3/STM32F0_files/CMSIS/core_cm0.h **** #ifdef __cplusplus
 167:mculib3/STM32F0_files/CMSIS/core_cm0.h **** }
 168:mculib3/STM32F0_files/CMSIS/core_cm0.h **** #endif
 169:mculib3/STM32F0_files/CMSIS/core_cm0.h **** 
 170:mculib3/STM32F0_files/CMSIS/core_cm0.h **** #endif /* __CORE_CM0_H_GENERIC */
 171:mculib3/STM32F0_files/CMSIS/core_cm0.h **** 
 172:mculib3/STM32F0_files/CMSIS/core_cm0.h **** #ifndef __CMSIS_GENERIC
 173:mculib3/STM32F0_files/CMSIS/core_cm0.h **** 
 174:mculib3/STM32F0_files/CMSIS/core_cm0.h **** #ifndef __CORE_CM0_H_DEPENDANT
 175:mculib3/STM32F0_files/CMSIS/core_cm0.h **** #define __CORE_CM0_H_DEPENDANT
 176:mculib3/STM32F0_files/CMSIS/core_cm0.h **** 
 177:mculib3/STM32F0_files/CMSIS/core_cm0.h **** #ifdef __cplusplus
 178:mculib3/STM32F0_files/CMSIS/core_cm0.h ****  extern "C" {
 179:mculib3/STM32F0_files/CMSIS/core_cm0.h **** #endif
 180:mculib3/STM32F0_files/CMSIS/core_cm0.h **** 
 181:mculib3/STM32F0_files/CMSIS/core_cm0.h **** /* check device defines and use defaults */
 182:mculib3/STM32F0_files/CMSIS/core_cm0.h **** #if defined __CHECK_DEVICE_DEFINES
 183:mculib3/STM32F0_files/CMSIS/core_cm0.h ****   #ifndef __CM0_REV
 184:mculib3/STM32F0_files/CMSIS/core_cm0.h ****     #define __CM0_REV               0x0000U
 185:mculib3/STM32F0_files/CMSIS/core_cm0.h ****     #warning "__CM0_REV not defined in device header file; using default!"
 186:mculib3/STM32F0_files/CMSIS/core_cm0.h ****   #endif
 187:mculib3/STM32F0_files/CMSIS/core_cm0.h **** 
 188:mculib3/STM32F0_files/CMSIS/core_cm0.h ****   #ifndef __NVIC_PRIO_BITS
 189:mculib3/STM32F0_files/CMSIS/core_cm0.h ****     #define __NVIC_PRIO_BITS          2U
 190:mculib3/STM32F0_files/CMSIS/core_cm0.h ****     #warning "__NVIC_PRIO_BITS not defined in device header file; using default!"
 191:mculib3/STM32F0_files/CMSIS/core_cm0.h ****   #endif
 192:mculib3/STM32F0_files/CMSIS/core_cm0.h **** 
 193:mculib3/STM32F0_files/CMSIS/core_cm0.h ****   #ifndef __Vendor_SysTickConfig
 194:mculib3/STM32F0_files/CMSIS/core_cm0.h ****     #define __Vendor_SysTickConfig    0U
 195:mculib3/STM32F0_files/CMSIS/core_cm0.h ****     #warning "__Vendor_SysTickConfig not defined in device header file; using default!"
 196:mculib3/STM32F0_files/CMSIS/core_cm0.h ****   #endif
 197:mculib3/STM32F0_files/CMSIS/core_cm0.h **** #endif
 198:mculib3/STM32F0_files/CMSIS/core_cm0.h **** 
 199:mculib3/STM32F0_files/CMSIS/core_cm0.h **** /* IO definitions (access restrictions to peripheral registers) */
 200:mculib3/STM32F0_files/CMSIS/core_cm0.h **** /**
 201:mculib3/STM32F0_files/CMSIS/core_cm0.h ****     \defgroup CMSIS_glob_defs CMSIS Global Defines
 202:mculib3/STM32F0_files/CMSIS/core_cm0.h **** 
 203:mculib3/STM32F0_files/CMSIS/core_cm0.h ****     <strong>IO Type Qualifiers</strong> are used
ARM GAS  /tmp/cc5K8h45.s 			page 5


 204:mculib3/STM32F0_files/CMSIS/core_cm0.h ****     \li to specify the access to peripheral variables.
 205:mculib3/STM32F0_files/CMSIS/core_cm0.h ****     \li for automatic generation of peripheral register debug information.
 206:mculib3/STM32F0_files/CMSIS/core_cm0.h **** */
 207:mculib3/STM32F0_files/CMSIS/core_cm0.h **** #ifdef __cplusplus
 208:mculib3/STM32F0_files/CMSIS/core_cm0.h ****   #define   __I     volatile             /*!< Defines 'read only' permissions */
 209:mculib3/STM32F0_files/CMSIS/core_cm0.h **** #else
 210:mculib3/STM32F0_files/CMSIS/core_cm0.h ****   #define   __I     volatile const       /*!< Defines 'read only' permissions */
 211:mculib3/STM32F0_files/CMSIS/core_cm0.h **** #endif
 212:mculib3/STM32F0_files/CMSIS/core_cm0.h **** #define     __O     volatile             /*!< Defines 'write only' permissions */
 213:mculib3/STM32F0_files/CMSIS/core_cm0.h **** #define     __IO    volatile             /*!< Defines 'read / write' permissions */
 214:mculib3/STM32F0_files/CMSIS/core_cm0.h **** 
 215:mculib3/STM32F0_files/CMSIS/core_cm0.h **** /* following defines should be used for structure members */
 216:mculib3/STM32F0_files/CMSIS/core_cm0.h **** #define     __IM     volatile const      /*! Defines 'read only' structure member permissions */
 217:mculib3/STM32F0_files/CMSIS/core_cm0.h **** #define     __OM     volatile            /*! Defines 'write only' structure member permissions */
 218:mculib3/STM32F0_files/CMSIS/core_cm0.h **** #define     __IOM    volatile            /*! Defines 'read / write' structure member permissions */
 219:mculib3/STM32F0_files/CMSIS/core_cm0.h **** 
 220:mculib3/STM32F0_files/CMSIS/core_cm0.h **** /*@} end of group Cortex_M0 */
 221:mculib3/STM32F0_files/CMSIS/core_cm0.h **** 
 222:mculib3/STM32F0_files/CMSIS/core_cm0.h **** 
 223:mculib3/STM32F0_files/CMSIS/core_cm0.h **** 
 224:mculib3/STM32F0_files/CMSIS/core_cm0.h **** /*******************************************************************************
 225:mculib3/STM32F0_files/CMSIS/core_cm0.h ****  *                 Register Abstraction
 226:mculib3/STM32F0_files/CMSIS/core_cm0.h ****   Core Register contain:
 227:mculib3/STM32F0_files/CMSIS/core_cm0.h ****   - Core Register
 228:mculib3/STM32F0_files/CMSIS/core_cm0.h ****   - Core NVIC Register
 229:mculib3/STM32F0_files/CMSIS/core_cm0.h ****   - Core SCB Register
 230:mculib3/STM32F0_files/CMSIS/core_cm0.h ****   - Core SysTick Register
 231:mculib3/STM32F0_files/CMSIS/core_cm0.h ****  ******************************************************************************/
 232:mculib3/STM32F0_files/CMSIS/core_cm0.h **** /**
 233:mculib3/STM32F0_files/CMSIS/core_cm0.h ****   \defgroup CMSIS_core_register Defines and Type Definitions
 234:mculib3/STM32F0_files/CMSIS/core_cm0.h ****   \brief Type definitions and defines for Cortex-M processor based devices.
 235:mculib3/STM32F0_files/CMSIS/core_cm0.h **** */
 236:mculib3/STM32F0_files/CMSIS/core_cm0.h **** 
 237:mculib3/STM32F0_files/CMSIS/core_cm0.h **** /**
 238:mculib3/STM32F0_files/CMSIS/core_cm0.h ****   \ingroup    CMSIS_core_register
 239:mculib3/STM32F0_files/CMSIS/core_cm0.h ****   \defgroup   CMSIS_CORE  Status and Control Registers
 240:mculib3/STM32F0_files/CMSIS/core_cm0.h ****   \brief      Core Register type definitions.
 241:mculib3/STM32F0_files/CMSIS/core_cm0.h ****   @{
 242:mculib3/STM32F0_files/CMSIS/core_cm0.h ****  */
 243:mculib3/STM32F0_files/CMSIS/core_cm0.h **** 
 244:mculib3/STM32F0_files/CMSIS/core_cm0.h **** /**
 245:mculib3/STM32F0_files/CMSIS/core_cm0.h ****   \brief  Union type to access the Application Program Status Register (APSR).
 246:mculib3/STM32F0_files/CMSIS/core_cm0.h ****  */
 247:mculib3/STM32F0_files/CMSIS/core_cm0.h **** typedef union
 248:mculib3/STM32F0_files/CMSIS/core_cm0.h **** {
 249:mculib3/STM32F0_files/CMSIS/core_cm0.h ****   struct
 250:mculib3/STM32F0_files/CMSIS/core_cm0.h ****   {
 251:mculib3/STM32F0_files/CMSIS/core_cm0.h ****     uint32_t _reserved0:28;              /*!< bit:  0..27  Reserved */
 252:mculib3/STM32F0_files/CMSIS/core_cm0.h ****     uint32_t V:1;                        /*!< bit:     28  Overflow condition code flag */
 253:mculib3/STM32F0_files/CMSIS/core_cm0.h ****     uint32_t C:1;                        /*!< bit:     29  Carry condition code flag */
 254:mculib3/STM32F0_files/CMSIS/core_cm0.h ****     uint32_t Z:1;                        /*!< bit:     30  Zero condition code flag */
 255:mculib3/STM32F0_files/CMSIS/core_cm0.h ****     uint32_t N:1;                        /*!< bit:     31  Negative condition code flag */
 256:mculib3/STM32F0_files/CMSIS/core_cm0.h ****   } b;                                   /*!< Structure used for bit  access */
 257:mculib3/STM32F0_files/CMSIS/core_cm0.h ****   uint32_t w;                            /*!< Type      used for word access */
 258:mculib3/STM32F0_files/CMSIS/core_cm0.h **** } APSR_Type;
 259:mculib3/STM32F0_files/CMSIS/core_cm0.h **** 
 260:mculib3/STM32F0_files/CMSIS/core_cm0.h **** /* APSR Register Definitions */
ARM GAS  /tmp/cc5K8h45.s 			page 6


 261:mculib3/STM32F0_files/CMSIS/core_cm0.h **** #define APSR_N_Pos                         31U                                            /*!< APSR
 262:mculib3/STM32F0_files/CMSIS/core_cm0.h **** #define APSR_N_Msk                         (1UL << APSR_N_Pos)                            /*!< APSR
 263:mculib3/STM32F0_files/CMSIS/core_cm0.h **** 
 264:mculib3/STM32F0_files/CMSIS/core_cm0.h **** #define APSR_Z_Pos                         30U                                            /*!< APSR
 265:mculib3/STM32F0_files/CMSIS/core_cm0.h **** #define APSR_Z_Msk                         (1UL << APSR_Z_Pos)                            /*!< APSR
 266:mculib3/STM32F0_files/CMSIS/core_cm0.h **** 
 267:mculib3/STM32F0_files/CMSIS/core_cm0.h **** #define APSR_C_Pos                         29U                                            /*!< APSR
 268:mculib3/STM32F0_files/CMSIS/core_cm0.h **** #define APSR_C_Msk                         (1UL << APSR_C_Pos)                            /*!< APSR
 269:mculib3/STM32F0_files/CMSIS/core_cm0.h **** 
 270:mculib3/STM32F0_files/CMSIS/core_cm0.h **** #define APSR_V_Pos                         28U                                            /*!< APSR
 271:mculib3/STM32F0_files/CMSIS/core_cm0.h **** #define APSR_V_Msk                         (1UL << APSR_V_Pos)                            /*!< APSR
 272:mculib3/STM32F0_files/CMSIS/core_cm0.h **** 
 273:mculib3/STM32F0_files/CMSIS/core_cm0.h **** 
 274:mculib3/STM32F0_files/CMSIS/core_cm0.h **** /**
 275:mculib3/STM32F0_files/CMSIS/core_cm0.h ****   \brief  Union type to access the Interrupt Program Status Register (IPSR).
 276:mculib3/STM32F0_files/CMSIS/core_cm0.h ****  */
 277:mculib3/STM32F0_files/CMSIS/core_cm0.h **** typedef union
 278:mculib3/STM32F0_files/CMSIS/core_cm0.h **** {
 279:mculib3/STM32F0_files/CMSIS/core_cm0.h ****   struct
 280:mculib3/STM32F0_files/CMSIS/core_cm0.h ****   {
 281:mculib3/STM32F0_files/CMSIS/core_cm0.h ****     uint32_t ISR:9;                      /*!< bit:  0.. 8  Exception number */
 282:mculib3/STM32F0_files/CMSIS/core_cm0.h ****     uint32_t _reserved0:23;              /*!< bit:  9..31  Reserved */
 283:mculib3/STM32F0_files/CMSIS/core_cm0.h ****   } b;                                   /*!< Structure used for bit  access */
 284:mculib3/STM32F0_files/CMSIS/core_cm0.h ****   uint32_t w;                            /*!< Type      used for word access */
 285:mculib3/STM32F0_files/CMSIS/core_cm0.h **** } IPSR_Type;
 286:mculib3/STM32F0_files/CMSIS/core_cm0.h **** 
 287:mculib3/STM32F0_files/CMSIS/core_cm0.h **** /* IPSR Register Definitions */
 288:mculib3/STM32F0_files/CMSIS/core_cm0.h **** #define IPSR_ISR_Pos                        0U                                            /*!< IPSR
 289:mculib3/STM32F0_files/CMSIS/core_cm0.h **** #define IPSR_ISR_Msk                       (0x1FFUL /*<< IPSR_ISR_Pos*/)                  /*!< IPSR
 290:mculib3/STM32F0_files/CMSIS/core_cm0.h **** 
 291:mculib3/STM32F0_files/CMSIS/core_cm0.h **** 
 292:mculib3/STM32F0_files/CMSIS/core_cm0.h **** /**
 293:mculib3/STM32F0_files/CMSIS/core_cm0.h ****   \brief  Union type to access the Special-Purpose Program Status Registers (xPSR).
 294:mculib3/STM32F0_files/CMSIS/core_cm0.h ****  */
 295:mculib3/STM32F0_files/CMSIS/core_cm0.h **** typedef union
 296:mculib3/STM32F0_files/CMSIS/core_cm0.h **** {
 297:mculib3/STM32F0_files/CMSIS/core_cm0.h ****   struct
 298:mculib3/STM32F0_files/CMSIS/core_cm0.h ****   {
 299:mculib3/STM32F0_files/CMSIS/core_cm0.h ****     uint32_t ISR:9;                      /*!< bit:  0.. 8  Exception number */
 300:mculib3/STM32F0_files/CMSIS/core_cm0.h ****     uint32_t _reserved0:15;              /*!< bit:  9..23  Reserved */
 301:mculib3/STM32F0_files/CMSIS/core_cm0.h ****     uint32_t T:1;                        /*!< bit:     24  Thumb bit        (read 0) */
 302:mculib3/STM32F0_files/CMSIS/core_cm0.h ****     uint32_t _reserved1:3;               /*!< bit: 25..27  Reserved */
 303:mculib3/STM32F0_files/CMSIS/core_cm0.h ****     uint32_t V:1;                        /*!< bit:     28  Overflow condition code flag */
 304:mculib3/STM32F0_files/CMSIS/core_cm0.h ****     uint32_t C:1;                        /*!< bit:     29  Carry condition code flag */
 305:mculib3/STM32F0_files/CMSIS/core_cm0.h ****     uint32_t Z:1;                        /*!< bit:     30  Zero condition code flag */
 306:mculib3/STM32F0_files/CMSIS/core_cm0.h ****     uint32_t N:1;                        /*!< bit:     31  Negative condition code flag */
 307:mculib3/STM32F0_files/CMSIS/core_cm0.h ****   } b;                                   /*!< Structure used for bit  access */
 308:mculib3/STM32F0_files/CMSIS/core_cm0.h ****   uint32_t w;                            /*!< Type      used for word access */
 309:mculib3/STM32F0_files/CMSIS/core_cm0.h **** } xPSR_Type;
 310:mculib3/STM32F0_files/CMSIS/core_cm0.h **** 
 311:mculib3/STM32F0_files/CMSIS/core_cm0.h **** /* xPSR Register Definitions */
 312:mculib3/STM32F0_files/CMSIS/core_cm0.h **** #define xPSR_N_Pos                         31U                                            /*!< xPSR
 313:mculib3/STM32F0_files/CMSIS/core_cm0.h **** #define xPSR_N_Msk                         (1UL << xPSR_N_Pos)                            /*!< xPSR
 314:mculib3/STM32F0_files/CMSIS/core_cm0.h **** 
 315:mculib3/STM32F0_files/CMSIS/core_cm0.h **** #define xPSR_Z_Pos                         30U                                            /*!< xPSR
 316:mculib3/STM32F0_files/CMSIS/core_cm0.h **** #define xPSR_Z_Msk                         (1UL << xPSR_Z_Pos)                            /*!< xPSR
 317:mculib3/STM32F0_files/CMSIS/core_cm0.h **** 
ARM GAS  /tmp/cc5K8h45.s 			page 7


 318:mculib3/STM32F0_files/CMSIS/core_cm0.h **** #define xPSR_C_Pos                         29U                                            /*!< xPSR
 319:mculib3/STM32F0_files/CMSIS/core_cm0.h **** #define xPSR_C_Msk                         (1UL << xPSR_C_Pos)                            /*!< xPSR
 320:mculib3/STM32F0_files/CMSIS/core_cm0.h **** 
 321:mculib3/STM32F0_files/CMSIS/core_cm0.h **** #define xPSR_V_Pos                         28U                                            /*!< xPSR
 322:mculib3/STM32F0_files/CMSIS/core_cm0.h **** #define xPSR_V_Msk                         (1UL << xPSR_V_Pos)                            /*!< xPSR
 323:mculib3/STM32F0_files/CMSIS/core_cm0.h **** 
 324:mculib3/STM32F0_files/CMSIS/core_cm0.h **** #define xPSR_T_Pos                         24U                                            /*!< xPSR
 325:mculib3/STM32F0_files/CMSIS/core_cm0.h **** #define xPSR_T_Msk                         (1UL << xPSR_T_Pos)                            /*!< xPSR
 326:mculib3/STM32F0_files/CMSIS/core_cm0.h **** 
 327:mculib3/STM32F0_files/CMSIS/core_cm0.h **** #define xPSR_ISR_Pos                        0U                                            /*!< xPSR
 328:mculib3/STM32F0_files/CMSIS/core_cm0.h **** #define xPSR_ISR_Msk                       (0x1FFUL /*<< xPSR_ISR_Pos*/)                  /*!< xPSR
 329:mculib3/STM32F0_files/CMSIS/core_cm0.h **** 
 330:mculib3/STM32F0_files/CMSIS/core_cm0.h **** 
 331:mculib3/STM32F0_files/CMSIS/core_cm0.h **** /**
 332:mculib3/STM32F0_files/CMSIS/core_cm0.h ****   \brief  Union type to access the Control Registers (CONTROL).
 333:mculib3/STM32F0_files/CMSIS/core_cm0.h ****  */
 334:mculib3/STM32F0_files/CMSIS/core_cm0.h **** typedef union
 335:mculib3/STM32F0_files/CMSIS/core_cm0.h **** {
 336:mculib3/STM32F0_files/CMSIS/core_cm0.h ****   struct
 337:mculib3/STM32F0_files/CMSIS/core_cm0.h ****   {
 338:mculib3/STM32F0_files/CMSIS/core_cm0.h ****     uint32_t _reserved0:1;               /*!< bit:      0  Reserved */
 339:mculib3/STM32F0_files/CMSIS/core_cm0.h ****     uint32_t SPSEL:1;                    /*!< bit:      1  Stack to be used */
 340:mculib3/STM32F0_files/CMSIS/core_cm0.h ****     uint32_t _reserved1:30;              /*!< bit:  2..31  Reserved */
 341:mculib3/STM32F0_files/CMSIS/core_cm0.h ****   } b;                                   /*!< Structure used for bit  access */
 342:mculib3/STM32F0_files/CMSIS/core_cm0.h ****   uint32_t w;                            /*!< Type      used for word access */
 343:mculib3/STM32F0_files/CMSIS/core_cm0.h **** } CONTROL_Type;
 344:mculib3/STM32F0_files/CMSIS/core_cm0.h **** 
 345:mculib3/STM32F0_files/CMSIS/core_cm0.h **** /* CONTROL Register Definitions */
 346:mculib3/STM32F0_files/CMSIS/core_cm0.h **** #define CONTROL_SPSEL_Pos                   1U                                            /*!< CONT
 347:mculib3/STM32F0_files/CMSIS/core_cm0.h **** #define CONTROL_SPSEL_Msk                  (1UL << CONTROL_SPSEL_Pos)                     /*!< CONT
 348:mculib3/STM32F0_files/CMSIS/core_cm0.h **** 
 349:mculib3/STM32F0_files/CMSIS/core_cm0.h **** /*@} end of group CMSIS_CORE */
 350:mculib3/STM32F0_files/CMSIS/core_cm0.h **** 
 351:mculib3/STM32F0_files/CMSIS/core_cm0.h **** 
 352:mculib3/STM32F0_files/CMSIS/core_cm0.h **** /**
 353:mculib3/STM32F0_files/CMSIS/core_cm0.h ****   \ingroup    CMSIS_core_register
 354:mculib3/STM32F0_files/CMSIS/core_cm0.h ****   \defgroup   CMSIS_NVIC  Nested Vectored Interrupt Controller (NVIC)
 355:mculib3/STM32F0_files/CMSIS/core_cm0.h ****   \brief      Type definitions for the NVIC Registers
 356:mculib3/STM32F0_files/CMSIS/core_cm0.h ****   @{
 357:mculib3/STM32F0_files/CMSIS/core_cm0.h ****  */
 358:mculib3/STM32F0_files/CMSIS/core_cm0.h **** 
 359:mculib3/STM32F0_files/CMSIS/core_cm0.h **** /**
 360:mculib3/STM32F0_files/CMSIS/core_cm0.h ****   \brief  Structure type to access the Nested Vectored Interrupt Controller (NVIC).
 361:mculib3/STM32F0_files/CMSIS/core_cm0.h ****  */
 362:mculib3/STM32F0_files/CMSIS/core_cm0.h **** typedef struct
 363:mculib3/STM32F0_files/CMSIS/core_cm0.h **** {
 364:mculib3/STM32F0_files/CMSIS/core_cm0.h ****   __IOM uint32_t ISER[1U];               /*!< Offset: 0x000 (R/W)  Interrupt Set Enable Register */
 365:mculib3/STM32F0_files/CMSIS/core_cm0.h ****         uint32_t RESERVED0[31U];
 366:mculib3/STM32F0_files/CMSIS/core_cm0.h ****   __IOM uint32_t ICER[1U];               /*!< Offset: 0x080 (R/W)  Interrupt Clear Enable Register 
 367:mculib3/STM32F0_files/CMSIS/core_cm0.h ****         uint32_t RSERVED1[31U];
 368:mculib3/STM32F0_files/CMSIS/core_cm0.h ****   __IOM uint32_t ISPR[1U];               /*!< Offset: 0x100 (R/W)  Interrupt Set Pending Register *
 369:mculib3/STM32F0_files/CMSIS/core_cm0.h ****         uint32_t RESERVED2[31U];
 370:mculib3/STM32F0_files/CMSIS/core_cm0.h ****   __IOM uint32_t ICPR[1U];               /*!< Offset: 0x180 (R/W)  Interrupt Clear Pending Register
 371:mculib3/STM32F0_files/CMSIS/core_cm0.h ****         uint32_t RESERVED3[31U];
 372:mculib3/STM32F0_files/CMSIS/core_cm0.h ****         uint32_t RESERVED4[64U];
 373:mculib3/STM32F0_files/CMSIS/core_cm0.h ****   __IOM uint32_t IP[8U];                 /*!< Offset: 0x300 (R/W)  Interrupt Priority Register */
 374:mculib3/STM32F0_files/CMSIS/core_cm0.h **** }  NVIC_Type;
ARM GAS  /tmp/cc5K8h45.s 			page 8


 375:mculib3/STM32F0_files/CMSIS/core_cm0.h **** 
 376:mculib3/STM32F0_files/CMSIS/core_cm0.h **** /*@} end of group CMSIS_NVIC */
 377:mculib3/STM32F0_files/CMSIS/core_cm0.h **** 
 378:mculib3/STM32F0_files/CMSIS/core_cm0.h **** 
 379:mculib3/STM32F0_files/CMSIS/core_cm0.h **** /**
 380:mculib3/STM32F0_files/CMSIS/core_cm0.h ****   \ingroup  CMSIS_core_register
 381:mculib3/STM32F0_files/CMSIS/core_cm0.h ****   \defgroup CMSIS_SCB     System Control Block (SCB)
 382:mculib3/STM32F0_files/CMSIS/core_cm0.h ****   \brief    Type definitions for the System Control Block Registers
 383:mculib3/STM32F0_files/CMSIS/core_cm0.h ****   @{
 384:mculib3/STM32F0_files/CMSIS/core_cm0.h ****  */
 385:mculib3/STM32F0_files/CMSIS/core_cm0.h **** 
 386:mculib3/STM32F0_files/CMSIS/core_cm0.h **** /**
 387:mculib3/STM32F0_files/CMSIS/core_cm0.h ****   \brief  Structure type to access the System Control Block (SCB).
 388:mculib3/STM32F0_files/CMSIS/core_cm0.h ****  */
 389:mculib3/STM32F0_files/CMSIS/core_cm0.h **** typedef struct
 390:mculib3/STM32F0_files/CMSIS/core_cm0.h **** {
 391:mculib3/STM32F0_files/CMSIS/core_cm0.h ****   __IM  uint32_t CPUID;                  /*!< Offset: 0x000 (R/ )  CPUID Base Register */
 392:mculib3/STM32F0_files/CMSIS/core_cm0.h ****   __IOM uint32_t ICSR;                   /*!< Offset: 0x004 (R/W)  Interrupt Control and State Regi
 393:mculib3/STM32F0_files/CMSIS/core_cm0.h ****         uint32_t RESERVED0;
 394:mculib3/STM32F0_files/CMSIS/core_cm0.h ****   __IOM uint32_t AIRCR;                  /*!< Offset: 0x00C (R/W)  Application Interrupt and Reset 
 395:mculib3/STM32F0_files/CMSIS/core_cm0.h ****   __IOM uint32_t SCR;                    /*!< Offset: 0x010 (R/W)  System Control Register */
 396:mculib3/STM32F0_files/CMSIS/core_cm0.h ****   __IOM uint32_t CCR;                    /*!< Offset: 0x014 (R/W)  Configuration Control Register *
 397:mculib3/STM32F0_files/CMSIS/core_cm0.h ****         uint32_t RESERVED1;
 398:mculib3/STM32F0_files/CMSIS/core_cm0.h ****   __IOM uint32_t SHP[2U];                /*!< Offset: 0x01C (R/W)  System Handlers Priority Registe
 399:mculib3/STM32F0_files/CMSIS/core_cm0.h ****   __IOM uint32_t SHCSR;                  /*!< Offset: 0x024 (R/W)  System Handler Control and State
 400:mculib3/STM32F0_files/CMSIS/core_cm0.h **** } SCB_Type;
 401:mculib3/STM32F0_files/CMSIS/core_cm0.h **** 
 402:mculib3/STM32F0_files/CMSIS/core_cm0.h **** /* SCB CPUID Register Definitions */
 403:mculib3/STM32F0_files/CMSIS/core_cm0.h **** #define SCB_CPUID_IMPLEMENTER_Pos          24U                                            /*!< SCB 
 404:mculib3/STM32F0_files/CMSIS/core_cm0.h **** #define SCB_CPUID_IMPLEMENTER_Msk          (0xFFUL << SCB_CPUID_IMPLEMENTER_Pos)          /*!< SCB 
 405:mculib3/STM32F0_files/CMSIS/core_cm0.h **** 
 406:mculib3/STM32F0_files/CMSIS/core_cm0.h **** #define SCB_CPUID_VARIANT_Pos              20U                                            /*!< SCB 
 407:mculib3/STM32F0_files/CMSIS/core_cm0.h **** #define SCB_CPUID_VARIANT_Msk              (0xFUL << SCB_CPUID_VARIANT_Pos)               /*!< SCB 
 408:mculib3/STM32F0_files/CMSIS/core_cm0.h **** 
 409:mculib3/STM32F0_files/CMSIS/core_cm0.h **** #define SCB_CPUID_ARCHITECTURE_Pos         16U                                            /*!< SCB 
 410:mculib3/STM32F0_files/CMSIS/core_cm0.h **** #define SCB_CPUID_ARCHITECTURE_Msk         (0xFUL << SCB_CPUID_ARCHITECTURE_Pos)          /*!< SCB 
 411:mculib3/STM32F0_files/CMSIS/core_cm0.h **** 
 412:mculib3/STM32F0_files/CMSIS/core_cm0.h **** #define SCB_CPUID_PARTNO_Pos                4U                                            /*!< SCB 
 413:mculib3/STM32F0_files/CMSIS/core_cm0.h **** #define SCB_CPUID_PARTNO_Msk               (0xFFFUL << SCB_CPUID_PARTNO_Pos)              /*!< SCB 
 414:mculib3/STM32F0_files/CMSIS/core_cm0.h **** 
 415:mculib3/STM32F0_files/CMSIS/core_cm0.h **** #define SCB_CPUID_REVISION_Pos              0U                                            /*!< SCB 
 416:mculib3/STM32F0_files/CMSIS/core_cm0.h **** #define SCB_CPUID_REVISION_Msk             (0xFUL /*<< SCB_CPUID_REVISION_Pos*/)          /*!< SCB 
 417:mculib3/STM32F0_files/CMSIS/core_cm0.h **** 
 418:mculib3/STM32F0_files/CMSIS/core_cm0.h **** /* SCB Interrupt Control State Register Definitions */
 419:mculib3/STM32F0_files/CMSIS/core_cm0.h **** #define SCB_ICSR_NMIPENDSET_Pos            31U                                            /*!< SCB 
 420:mculib3/STM32F0_files/CMSIS/core_cm0.h **** #define SCB_ICSR_NMIPENDSET_Msk            (1UL << SCB_ICSR_NMIPENDSET_Pos)               /*!< SCB 
 421:mculib3/STM32F0_files/CMSIS/core_cm0.h **** 
 422:mculib3/STM32F0_files/CMSIS/core_cm0.h **** #define SCB_ICSR_PENDSVSET_Pos             28U                                            /*!< SCB 
 423:mculib3/STM32F0_files/CMSIS/core_cm0.h **** #define SCB_ICSR_PENDSVSET_Msk             (1UL << SCB_ICSR_PENDSVSET_Pos)                /*!< SCB 
 424:mculib3/STM32F0_files/CMSIS/core_cm0.h **** 
 425:mculib3/STM32F0_files/CMSIS/core_cm0.h **** #define SCB_ICSR_PENDSVCLR_Pos             27U                                            /*!< SCB 
 426:mculib3/STM32F0_files/CMSIS/core_cm0.h **** #define SCB_ICSR_PENDSVCLR_Msk             (1UL << SCB_ICSR_PENDSVCLR_Pos)                /*!< SCB 
 427:mculib3/STM32F0_files/CMSIS/core_cm0.h **** 
 428:mculib3/STM32F0_files/CMSIS/core_cm0.h **** #define SCB_ICSR_PENDSTSET_Pos             26U                                            /*!< SCB 
 429:mculib3/STM32F0_files/CMSIS/core_cm0.h **** #define SCB_ICSR_PENDSTSET_Msk             (1UL << SCB_ICSR_PENDSTSET_Pos)                /*!< SCB 
 430:mculib3/STM32F0_files/CMSIS/core_cm0.h **** 
 431:mculib3/STM32F0_files/CMSIS/core_cm0.h **** #define SCB_ICSR_PENDSTCLR_Pos             25U                                            /*!< SCB 
ARM GAS  /tmp/cc5K8h45.s 			page 9


 432:mculib3/STM32F0_files/CMSIS/core_cm0.h **** #define SCB_ICSR_PENDSTCLR_Msk             (1UL << SCB_ICSR_PENDSTCLR_Pos)                /*!< SCB 
 433:mculib3/STM32F0_files/CMSIS/core_cm0.h **** 
 434:mculib3/STM32F0_files/CMSIS/core_cm0.h **** #define SCB_ICSR_ISRPREEMPT_Pos            23U                                            /*!< SCB 
 435:mculib3/STM32F0_files/CMSIS/core_cm0.h **** #define SCB_ICSR_ISRPREEMPT_Msk            (1UL << SCB_ICSR_ISRPREEMPT_Pos)               /*!< SCB 
 436:mculib3/STM32F0_files/CMSIS/core_cm0.h **** 
 437:mculib3/STM32F0_files/CMSIS/core_cm0.h **** #define SCB_ICSR_ISRPENDING_Pos            22U                                            /*!< SCB 
 438:mculib3/STM32F0_files/CMSIS/core_cm0.h **** #define SCB_ICSR_ISRPENDING_Msk            (1UL << SCB_ICSR_ISRPENDING_Pos)               /*!< SCB 
 439:mculib3/STM32F0_files/CMSIS/core_cm0.h **** 
 440:mculib3/STM32F0_files/CMSIS/core_cm0.h **** #define SCB_ICSR_VECTPENDING_Pos           12U                                            /*!< SCB 
 441:mculib3/STM32F0_files/CMSIS/core_cm0.h **** #define SCB_ICSR_VECTPENDING_Msk           (0x1FFUL << SCB_ICSR_VECTPENDING_Pos)          /*!< SCB 
 442:mculib3/STM32F0_files/CMSIS/core_cm0.h **** 
 443:mculib3/STM32F0_files/CMSIS/core_cm0.h **** #define SCB_ICSR_VECTACTIVE_Pos             0U                                            /*!< SCB 
 444:mculib3/STM32F0_files/CMSIS/core_cm0.h **** #define SCB_ICSR_VECTACTIVE_Msk            (0x1FFUL /*<< SCB_ICSR_VECTACTIVE_Pos*/)       /*!< SCB 
 445:mculib3/STM32F0_files/CMSIS/core_cm0.h **** 
 446:mculib3/STM32F0_files/CMSIS/core_cm0.h **** /* SCB Application Interrupt and Reset Control Register Definitions */
 447:mculib3/STM32F0_files/CMSIS/core_cm0.h **** #define SCB_AIRCR_VECTKEY_Pos              16U                                            /*!< SCB 
 448:mculib3/STM32F0_files/CMSIS/core_cm0.h **** #define SCB_AIRCR_VECTKEY_Msk              (0xFFFFUL << SCB_AIRCR_VECTKEY_Pos)            /*!< SCB 
 449:mculib3/STM32F0_files/CMSIS/core_cm0.h **** 
 450:mculib3/STM32F0_files/CMSIS/core_cm0.h **** #define SCB_AIRCR_VECTKEYSTAT_Pos          16U                                            /*!< SCB 
 451:mculib3/STM32F0_files/CMSIS/core_cm0.h **** #define SCB_AIRCR_VECTKEYSTAT_Msk          (0xFFFFUL << SCB_AIRCR_VECTKEYSTAT_Pos)        /*!< SCB 
 452:mculib3/STM32F0_files/CMSIS/core_cm0.h **** 
 453:mculib3/STM32F0_files/CMSIS/core_cm0.h **** #define SCB_AIRCR_ENDIANESS_Pos            15U                                            /*!< SCB 
 454:mculib3/STM32F0_files/CMSIS/core_cm0.h **** #define SCB_AIRCR_ENDIANESS_Msk            (1UL << SCB_AIRCR_ENDIANESS_Pos)               /*!< SCB 
 455:mculib3/STM32F0_files/CMSIS/core_cm0.h **** 
 456:mculib3/STM32F0_files/CMSIS/core_cm0.h **** #define SCB_AIRCR_SYSRESETREQ_Pos           2U                                            /*!< SCB 
 457:mculib3/STM32F0_files/CMSIS/core_cm0.h **** #define SCB_AIRCR_SYSRESETREQ_Msk          (1UL << SCB_AIRCR_SYSRESETREQ_Pos)             /*!< SCB 
 458:mculib3/STM32F0_files/CMSIS/core_cm0.h **** 
 459:mculib3/STM32F0_files/CMSIS/core_cm0.h **** #define SCB_AIRCR_VECTCLRACTIVE_Pos         1U                                            /*!< SCB 
 460:mculib3/STM32F0_files/CMSIS/core_cm0.h **** #define SCB_AIRCR_VECTCLRACTIVE_Msk        (1UL << SCB_AIRCR_VECTCLRACTIVE_Pos)           /*!< SCB 
 461:mculib3/STM32F0_files/CMSIS/core_cm0.h **** 
 462:mculib3/STM32F0_files/CMSIS/core_cm0.h **** /* SCB System Control Register Definitions */
 463:mculib3/STM32F0_files/CMSIS/core_cm0.h **** #define SCB_SCR_SEVONPEND_Pos               4U                                            /*!< SCB 
 464:mculib3/STM32F0_files/CMSIS/core_cm0.h **** #define SCB_SCR_SEVONPEND_Msk              (1UL << SCB_SCR_SEVONPEND_Pos)                 /*!< SCB 
 465:mculib3/STM32F0_files/CMSIS/core_cm0.h **** 
 466:mculib3/STM32F0_files/CMSIS/core_cm0.h **** #define SCB_SCR_SLEEPDEEP_Pos               2U                                            /*!< SCB 
 467:mculib3/STM32F0_files/CMSIS/core_cm0.h **** #define SCB_SCR_SLEEPDEEP_Msk              (1UL << SCB_SCR_SLEEPDEEP_Pos)                 /*!< SCB 
 468:mculib3/STM32F0_files/CMSIS/core_cm0.h **** 
 469:mculib3/STM32F0_files/CMSIS/core_cm0.h **** #define SCB_SCR_SLEEPONEXIT_Pos             1U                                            /*!< SCB 
 470:mculib3/STM32F0_files/CMSIS/core_cm0.h **** #define SCB_SCR_SLEEPONEXIT_Msk            (1UL << SCB_SCR_SLEEPONEXIT_Pos)               /*!< SCB 
 471:mculib3/STM32F0_files/CMSIS/core_cm0.h **** 
 472:mculib3/STM32F0_files/CMSIS/core_cm0.h **** /* SCB Configuration Control Register Definitions */
 473:mculib3/STM32F0_files/CMSIS/core_cm0.h **** #define SCB_CCR_STKALIGN_Pos                9U                                            /*!< SCB 
 474:mculib3/STM32F0_files/CMSIS/core_cm0.h **** #define SCB_CCR_STKALIGN_Msk               (1UL << SCB_CCR_STKALIGN_Pos)                  /*!< SCB 
 475:mculib3/STM32F0_files/CMSIS/core_cm0.h **** 
 476:mculib3/STM32F0_files/CMSIS/core_cm0.h **** #define SCB_CCR_UNALIGN_TRP_Pos             3U                                            /*!< SCB 
 477:mculib3/STM32F0_files/CMSIS/core_cm0.h **** #define SCB_CCR_UNALIGN_TRP_Msk            (1UL << SCB_CCR_UNALIGN_TRP_Pos)               /*!< SCB 
 478:mculib3/STM32F0_files/CMSIS/core_cm0.h **** 
 479:mculib3/STM32F0_files/CMSIS/core_cm0.h **** /* SCB System Handler Control and State Register Definitions */
 480:mculib3/STM32F0_files/CMSIS/core_cm0.h **** #define SCB_SHCSR_SVCALLPENDED_Pos         15U                                            /*!< SCB 
 481:mculib3/STM32F0_files/CMSIS/core_cm0.h **** #define SCB_SHCSR_SVCALLPENDED_Msk         (1UL << SCB_SHCSR_SVCALLPENDED_Pos)            /*!< SCB 
 482:mculib3/STM32F0_files/CMSIS/core_cm0.h **** 
 483:mculib3/STM32F0_files/CMSIS/core_cm0.h **** /*@} end of group CMSIS_SCB */
 484:mculib3/STM32F0_files/CMSIS/core_cm0.h **** 
 485:mculib3/STM32F0_files/CMSIS/core_cm0.h **** 
 486:mculib3/STM32F0_files/CMSIS/core_cm0.h **** /**
 487:mculib3/STM32F0_files/CMSIS/core_cm0.h ****   \ingroup  CMSIS_core_register
 488:mculib3/STM32F0_files/CMSIS/core_cm0.h ****   \defgroup CMSIS_SysTick     System Tick Timer (SysTick)
ARM GAS  /tmp/cc5K8h45.s 			page 10


 489:mculib3/STM32F0_files/CMSIS/core_cm0.h ****   \brief    Type definitions for the System Timer Registers.
 490:mculib3/STM32F0_files/CMSIS/core_cm0.h ****   @{
 491:mculib3/STM32F0_files/CMSIS/core_cm0.h ****  */
 492:mculib3/STM32F0_files/CMSIS/core_cm0.h **** 
 493:mculib3/STM32F0_files/CMSIS/core_cm0.h **** /**
 494:mculib3/STM32F0_files/CMSIS/core_cm0.h ****   \brief  Structure type to access the System Timer (SysTick).
 495:mculib3/STM32F0_files/CMSIS/core_cm0.h ****  */
 496:mculib3/STM32F0_files/CMSIS/core_cm0.h **** typedef struct
 497:mculib3/STM32F0_files/CMSIS/core_cm0.h **** {
 498:mculib3/STM32F0_files/CMSIS/core_cm0.h ****   __IOM uint32_t CTRL;                   /*!< Offset: 0x000 (R/W)  SysTick Control and Status Regis
 499:mculib3/STM32F0_files/CMSIS/core_cm0.h ****   __IOM uint32_t LOAD;                   /*!< Offset: 0x004 (R/W)  SysTick Reload Value Register */
 500:mculib3/STM32F0_files/CMSIS/core_cm0.h ****   __IOM uint32_t VAL;                    /*!< Offset: 0x008 (R/W)  SysTick Current Value Register *
 501:mculib3/STM32F0_files/CMSIS/core_cm0.h ****   __IM  uint32_t CALIB;                  /*!< Offset: 0x00C (R/ )  SysTick Calibration Register */
 502:mculib3/STM32F0_files/CMSIS/core_cm0.h **** } SysTick_Type;
 503:mculib3/STM32F0_files/CMSIS/core_cm0.h **** 
 504:mculib3/STM32F0_files/CMSIS/core_cm0.h **** /* SysTick Control / Status Register Definitions */
 505:mculib3/STM32F0_files/CMSIS/core_cm0.h **** #define SysTick_CTRL_COUNTFLAG_Pos         16U                                            /*!< SysT
 506:mculib3/STM32F0_files/CMSIS/core_cm0.h **** #define SysTick_CTRL_COUNTFLAG_Msk         (1UL << SysTick_CTRL_COUNTFLAG_Pos)            /*!< SysT
 507:mculib3/STM32F0_files/CMSIS/core_cm0.h **** 
 508:mculib3/STM32F0_files/CMSIS/core_cm0.h **** #define SysTick_CTRL_CLKSOURCE_Pos          2U                                            /*!< SysT
 509:mculib3/STM32F0_files/CMSIS/core_cm0.h **** #define SysTick_CTRL_CLKSOURCE_Msk         (1UL << SysTick_CTRL_CLKSOURCE_Pos)            /*!< SysT
 510:mculib3/STM32F0_files/CMSIS/core_cm0.h **** 
 511:mculib3/STM32F0_files/CMSIS/core_cm0.h **** #define SysTick_CTRL_TICKINT_Pos            1U                                            /*!< SysT
 512:mculib3/STM32F0_files/CMSIS/core_cm0.h **** #define SysTick_CTRL_TICKINT_Msk           (1UL << SysTick_CTRL_TICKINT_Pos)              /*!< SysT
 513:mculib3/STM32F0_files/CMSIS/core_cm0.h **** 
 514:mculib3/STM32F0_files/CMSIS/core_cm0.h **** #define SysTick_CTRL_ENABLE_Pos             0U                                            /*!< SysT
 515:mculib3/STM32F0_files/CMSIS/core_cm0.h **** #define SysTick_CTRL_ENABLE_Msk            (1UL /*<< SysTick_CTRL_ENABLE_Pos*/)           /*!< SysT
 516:mculib3/STM32F0_files/CMSIS/core_cm0.h **** 
 517:mculib3/STM32F0_files/CMSIS/core_cm0.h **** /* SysTick Reload Register Definitions */
 518:mculib3/STM32F0_files/CMSIS/core_cm0.h **** #define SysTick_LOAD_RELOAD_Pos             0U                                            /*!< SysT
 519:mculib3/STM32F0_files/CMSIS/core_cm0.h **** #define SysTick_LOAD_RELOAD_Msk            (0xFFFFFFUL /*<< SysTick_LOAD_RELOAD_Pos*/)    /*!< SysT
 520:mculib3/STM32F0_files/CMSIS/core_cm0.h **** 
 521:mculib3/STM32F0_files/CMSIS/core_cm0.h **** /* SysTick Current Register Definitions */
 522:mculib3/STM32F0_files/CMSIS/core_cm0.h **** #define SysTick_VAL_CURRENT_Pos             0U                                            /*!< SysT
 523:mculib3/STM32F0_files/CMSIS/core_cm0.h **** #define SysTick_VAL_CURRENT_Msk            (0xFFFFFFUL /*<< SysTick_VAL_CURRENT_Pos*/)    /*!< SysT
 524:mculib3/STM32F0_files/CMSIS/core_cm0.h **** 
 525:mculib3/STM32F0_files/CMSIS/core_cm0.h **** /* SysTick Calibration Register Definitions */
 526:mculib3/STM32F0_files/CMSIS/core_cm0.h **** #define SysTick_CALIB_NOREF_Pos            31U                                            /*!< SysT
 527:mculib3/STM32F0_files/CMSIS/core_cm0.h **** #define SysTick_CALIB_NOREF_Msk            (1UL << SysTick_CALIB_NOREF_Pos)               /*!< SysT
 528:mculib3/STM32F0_files/CMSIS/core_cm0.h **** 
 529:mculib3/STM32F0_files/CMSIS/core_cm0.h **** #define SysTick_CALIB_SKEW_Pos             30U                                            /*!< SysT
 530:mculib3/STM32F0_files/CMSIS/core_cm0.h **** #define SysTick_CALIB_SKEW_Msk             (1UL << SysTick_CALIB_SKEW_Pos)                /*!< SysT
 531:mculib3/STM32F0_files/CMSIS/core_cm0.h **** 
 532:mculib3/STM32F0_files/CMSIS/core_cm0.h **** #define SysTick_CALIB_TENMS_Pos             0U                                            /*!< SysT
 533:mculib3/STM32F0_files/CMSIS/core_cm0.h **** #define SysTick_CALIB_TENMS_Msk            (0xFFFFFFUL /*<< SysTick_CALIB_TENMS_Pos*/)    /*!< SysT
 534:mculib3/STM32F0_files/CMSIS/core_cm0.h **** 
 535:mculib3/STM32F0_files/CMSIS/core_cm0.h **** /*@} end of group CMSIS_SysTick */
 536:mculib3/STM32F0_files/CMSIS/core_cm0.h **** 
 537:mculib3/STM32F0_files/CMSIS/core_cm0.h **** 
 538:mculib3/STM32F0_files/CMSIS/core_cm0.h **** /**
 539:mculib3/STM32F0_files/CMSIS/core_cm0.h ****   \ingroup  CMSIS_core_register
 540:mculib3/STM32F0_files/CMSIS/core_cm0.h ****   \defgroup CMSIS_CoreDebug       Core Debug Registers (CoreDebug)
 541:mculib3/STM32F0_files/CMSIS/core_cm0.h ****   \brief    Cortex-M0 Core Debug Registers (DCB registers, SHCSR, and DFSR) are only accessible ove
 542:mculib3/STM32F0_files/CMSIS/core_cm0.h ****             Therefore they are not covered by the Cortex-M0 header file.
 543:mculib3/STM32F0_files/CMSIS/core_cm0.h ****   @{
 544:mculib3/STM32F0_files/CMSIS/core_cm0.h ****  */
 545:mculib3/STM32F0_files/CMSIS/core_cm0.h **** /*@} end of group CMSIS_CoreDebug */
ARM GAS  /tmp/cc5K8h45.s 			page 11


 546:mculib3/STM32F0_files/CMSIS/core_cm0.h **** 
 547:mculib3/STM32F0_files/CMSIS/core_cm0.h **** 
 548:mculib3/STM32F0_files/CMSIS/core_cm0.h **** /**
 549:mculib3/STM32F0_files/CMSIS/core_cm0.h ****   \ingroup    CMSIS_core_register
 550:mculib3/STM32F0_files/CMSIS/core_cm0.h ****   \defgroup   CMSIS_core_bitfield     Core register bit field macros
 551:mculib3/STM32F0_files/CMSIS/core_cm0.h ****   \brief      Macros for use with bit field definitions (xxx_Pos, xxx_Msk).
 552:mculib3/STM32F0_files/CMSIS/core_cm0.h ****   @{
 553:mculib3/STM32F0_files/CMSIS/core_cm0.h ****  */
 554:mculib3/STM32F0_files/CMSIS/core_cm0.h **** 
 555:mculib3/STM32F0_files/CMSIS/core_cm0.h **** /**
 556:mculib3/STM32F0_files/CMSIS/core_cm0.h ****   \brief   Mask and shift a bit field value for use in a register bit range.
 557:mculib3/STM32F0_files/CMSIS/core_cm0.h ****   \param[in] field  Name of the register bit field.
 558:mculib3/STM32F0_files/CMSIS/core_cm0.h ****   \param[in] value  Value of the bit field.
 559:mculib3/STM32F0_files/CMSIS/core_cm0.h ****   \return           Masked and shifted value.
 560:mculib3/STM32F0_files/CMSIS/core_cm0.h **** */
 561:mculib3/STM32F0_files/CMSIS/core_cm0.h **** #define _VAL2FLD(field, value)    ((value << field ## _Pos) & field ## _Msk)
 562:mculib3/STM32F0_files/CMSIS/core_cm0.h **** 
 563:mculib3/STM32F0_files/CMSIS/core_cm0.h **** /**
 564:mculib3/STM32F0_files/CMSIS/core_cm0.h ****   \brief     Mask and shift a register value to extract a bit filed value.
 565:mculib3/STM32F0_files/CMSIS/core_cm0.h ****   \param[in] field  Name of the register bit field.
 566:mculib3/STM32F0_files/CMSIS/core_cm0.h ****   \param[in] value  Value of register.
 567:mculib3/STM32F0_files/CMSIS/core_cm0.h ****   \return           Masked and shifted bit field value.
 568:mculib3/STM32F0_files/CMSIS/core_cm0.h **** */
 569:mculib3/STM32F0_files/CMSIS/core_cm0.h **** #define _FLD2VAL(field, value)    ((value & field ## _Msk) >> field ## _Pos)
 570:mculib3/STM32F0_files/CMSIS/core_cm0.h **** 
 571:mculib3/STM32F0_files/CMSIS/core_cm0.h **** /*@} end of group CMSIS_core_bitfield */
 572:mculib3/STM32F0_files/CMSIS/core_cm0.h **** 
 573:mculib3/STM32F0_files/CMSIS/core_cm0.h **** 
 574:mculib3/STM32F0_files/CMSIS/core_cm0.h **** /**
 575:mculib3/STM32F0_files/CMSIS/core_cm0.h ****   \ingroup    CMSIS_core_register
 576:mculib3/STM32F0_files/CMSIS/core_cm0.h ****   \defgroup   CMSIS_core_base     Core Definitions
 577:mculib3/STM32F0_files/CMSIS/core_cm0.h ****   \brief      Definitions for base addresses, unions, and structures.
 578:mculib3/STM32F0_files/CMSIS/core_cm0.h ****   @{
 579:mculib3/STM32F0_files/CMSIS/core_cm0.h ****  */
 580:mculib3/STM32F0_files/CMSIS/core_cm0.h **** 
 581:mculib3/STM32F0_files/CMSIS/core_cm0.h **** /* Memory mapping of Cortex-M0 Hardware */
 582:mculib3/STM32F0_files/CMSIS/core_cm0.h **** #define SCS_BASE            (0xE000E000UL)                            /*!< System Control Space Bas
 583:mculib3/STM32F0_files/CMSIS/core_cm0.h **** #define SysTick_BASE        (SCS_BASE +  0x0010UL)                    /*!< SysTick Base Address */
 584:mculib3/STM32F0_files/CMSIS/core_cm0.h **** #define NVIC_BASE           (SCS_BASE +  0x0100UL)                    /*!< NVIC Base Address */
 585:mculib3/STM32F0_files/CMSIS/core_cm0.h **** #define SCB_BASE            (SCS_BASE +  0x0D00UL)                    /*!< System Control Block Bas
 586:mculib3/STM32F0_files/CMSIS/core_cm0.h **** 
 587:mculib3/STM32F0_files/CMSIS/core_cm0.h **** #define SCB                 ((SCB_Type       *)     SCB_BASE      )   /*!< SCB configuration struct
 588:mculib3/STM32F0_files/CMSIS/core_cm0.h **** #define SysTick             ((SysTick_Type   *)     SysTick_BASE  )   /*!< SysTick configuration st
 589:mculib3/STM32F0_files/CMSIS/core_cm0.h **** #define NVIC                ((NVIC_Type      *)     NVIC_BASE     )   /*!< NVIC configuration struc
 590:mculib3/STM32F0_files/CMSIS/core_cm0.h **** 
 591:mculib3/STM32F0_files/CMSIS/core_cm0.h **** 
 592:mculib3/STM32F0_files/CMSIS/core_cm0.h **** /*@} */
 593:mculib3/STM32F0_files/CMSIS/core_cm0.h **** 
 594:mculib3/STM32F0_files/CMSIS/core_cm0.h **** 
 595:mculib3/STM32F0_files/CMSIS/core_cm0.h **** 
 596:mculib3/STM32F0_files/CMSIS/core_cm0.h **** /*******************************************************************************
 597:mculib3/STM32F0_files/CMSIS/core_cm0.h ****  *                Hardware Abstraction Layer
 598:mculib3/STM32F0_files/CMSIS/core_cm0.h ****   Core Function Interface contains:
 599:mculib3/STM32F0_files/CMSIS/core_cm0.h ****   - Core NVIC Functions
 600:mculib3/STM32F0_files/CMSIS/core_cm0.h ****   - Core SysTick Functions
 601:mculib3/STM32F0_files/CMSIS/core_cm0.h ****   - Core Register Access Functions
 602:mculib3/STM32F0_files/CMSIS/core_cm0.h ****  ******************************************************************************/
ARM GAS  /tmp/cc5K8h45.s 			page 12


 603:mculib3/STM32F0_files/CMSIS/core_cm0.h **** /**
 604:mculib3/STM32F0_files/CMSIS/core_cm0.h ****   \defgroup CMSIS_Core_FunctionInterface Functions and Instructions Reference
 605:mculib3/STM32F0_files/CMSIS/core_cm0.h **** */
 606:mculib3/STM32F0_files/CMSIS/core_cm0.h **** 
 607:mculib3/STM32F0_files/CMSIS/core_cm0.h **** 
 608:mculib3/STM32F0_files/CMSIS/core_cm0.h **** 
 609:mculib3/STM32F0_files/CMSIS/core_cm0.h **** /* ##########################   NVIC functions  #################################### */
 610:mculib3/STM32F0_files/CMSIS/core_cm0.h **** /**
 611:mculib3/STM32F0_files/CMSIS/core_cm0.h ****   \ingroup  CMSIS_Core_FunctionInterface
 612:mculib3/STM32F0_files/CMSIS/core_cm0.h ****   \defgroup CMSIS_Core_NVICFunctions NVIC Functions
 613:mculib3/STM32F0_files/CMSIS/core_cm0.h ****   \brief    Functions that manage interrupts and exceptions via the NVIC.
 614:mculib3/STM32F0_files/CMSIS/core_cm0.h ****   @{
 615:mculib3/STM32F0_files/CMSIS/core_cm0.h ****  */
 616:mculib3/STM32F0_files/CMSIS/core_cm0.h **** 
 617:mculib3/STM32F0_files/CMSIS/core_cm0.h **** /* Interrupt Priorities are WORD accessible only under ARMv6M                   */
 618:mculib3/STM32F0_files/CMSIS/core_cm0.h **** /* The following MACROS handle generation of the register offset and byte masks */
 619:mculib3/STM32F0_files/CMSIS/core_cm0.h **** #define _BIT_SHIFT(IRQn)         (  ((((uint32_t)(int32_t)(IRQn))         )      &  0x03UL) * 8UL)
 620:mculib3/STM32F0_files/CMSIS/core_cm0.h **** #define _SHP_IDX(IRQn)           ( (((((uint32_t)(int32_t)(IRQn)) & 0x0FUL)-8UL) >>    2UL)      )
 621:mculib3/STM32F0_files/CMSIS/core_cm0.h **** #define _IP_IDX(IRQn)            (   (((uint32_t)(int32_t)(IRQn))                >>    2UL)      )
 622:mculib3/STM32F0_files/CMSIS/core_cm0.h **** 
 623:mculib3/STM32F0_files/CMSIS/core_cm0.h **** 
 624:mculib3/STM32F0_files/CMSIS/core_cm0.h **** /**
 625:mculib3/STM32F0_files/CMSIS/core_cm0.h ****   \brief   Enable External Interrupt
 626:mculib3/STM32F0_files/CMSIS/core_cm0.h ****   \details Enables a device-specific interrupt in the NVIC interrupt controller.
 627:mculib3/STM32F0_files/CMSIS/core_cm0.h ****   \param [in]      IRQn  External interrupt number. Value cannot be negative.
 628:mculib3/STM32F0_files/CMSIS/core_cm0.h ****  */
 629:mculib3/STM32F0_files/CMSIS/core_cm0.h **** __STATIC_INLINE void NVIC_EnableIRQ(IRQn_Type IRQn)
 630:mculib3/STM32F0_files/CMSIS/core_cm0.h **** {
  27              		.loc 1 630 1 view -0
  28              		.cfi_startproc
  29              		@ args = 0, pretend = 0, frame = 0
  30              		@ frame_needed = 0, uses_anonymous_args = 0
  31              		@ link register save eliminated.
 631:mculib3/STM32F0_files/CMSIS/core_cm0.h ****   NVIC->ISER[0U] = (uint32_t)(1UL << (((uint32_t)(int32_t)IRQn) & 0x1FUL));
  32              		.loc 1 631 3 view .LVU1
  33              		.loc 1 631 65 is_stmt 0 view .LVU2
  34 0000 1F23     		movs	r3, #31
  35 0002 1840     		ands	r0, r3
  36              	.LVL1:
  37              		.loc 1 631 35 view .LVU3
  38 0004 1E3B     		subs	r3, r3, #30
  39 0006 8340     		lsls	r3, r3, r0
  40              		.loc 1 631 18 view .LVU4
  41 0008 014A     		ldr	r2, .L2
 632:mculib3/STM32F0_files/CMSIS/core_cm0.h **** }
  42              		.loc 1 632 1 view .LVU5
  43              		@ sp needed
 631:mculib3/STM32F0_files/CMSIS/core_cm0.h ****   NVIC->ISER[0U] = (uint32_t)(1UL << (((uint32_t)(int32_t)IRQn) & 0x1FUL));
  44              		.loc 1 631 18 view .LVU6
  45 000a 1360     		str	r3, [r2]
  46              		.loc 1 632 1 view .LVU7
  47 000c 7047     		bx	lr
  48              	.L3:
  49 000e C046     		.align	2
  50              	.L2:
  51 0010 00E100E0 		.word	-536813312
  52              		.cfi_endproc
ARM GAS  /tmp/cc5K8h45.s 			page 13


  53              	.LFE45:
  55              		.section	.text._ZN12Modbus_slaveI7In_regs8Out_regsLj0EE6notifyEv,"axG",%progbits,_ZN12Modbus_slave
  56              		.align	1
  57              		.weak	_ZN12Modbus_slaveI7In_regs8Out_regsLj0EE6notifyEv
  58              		.syntax unified
  59              		.code	16
  60              		.thumb_func
  61              		.fpu softvfp
  63              	_ZN12Modbus_slaveI7In_regs8Out_regsLj0EE6notifyEv:
  64              	.LVL2:
  65              	.LFB4699:
  66              		.file 2 "mculib3/src/modbus_slave.h"
   1:mculib3/src/modbus_slave.h **** #pragma once
   2:mculib3/src/modbus_slave.h **** 
   3:mculib3/src/modbus_slave.h **** #include <functional>
   4:mculib3/src/modbus_slave.h **** #include "timers.h"
   5:mculib3/src/modbus_slave.h **** #include "table_crc.h"
   6:mculib3/src/modbus_slave.h **** #include "uart.h"
   7:mculib3/src/modbus_slave.h **** #include "interrupt.h"
   8:mculib3/src/modbus_slave.h **** #include "modbus_common.h"
   9:mculib3/src/modbus_slave.h **** #include <cstring>
  10:mculib3/src/modbus_slave.h **** #include <array>
  11:mculib3/src/modbus_slave.h **** 
  12:mculib3/src/modbus_slave.h **** #if defined(USE_MOCK_UART)
  13:mculib3/src/modbus_slave.h **** using UART_ = mock::UART;
  14:mculib3/src/modbus_slave.h **** #else
  15:mculib3/src/modbus_slave.h **** using UART_ = ::UART;
  16:mculib3/src/modbus_slave.h **** #endif
  17:mculib3/src/modbus_slave.h **** 
  18:mculib3/src/modbus_slave.h **** 
  19:mculib3/src/modbus_slave.h **** template <class InRegs_t, class OutRegs_t, size_t coils_qty = 0>
  20:mculib3/src/modbus_slave.h **** class Modbus_slave : TickSubscriber
  21:mculib3/src/modbus_slave.h **** {
  22:mculib3/src/modbus_slave.h ****     UART_& uart;
  23:mculib3/src/modbus_slave.h ****     Interrupt& interrupt_usart;
  24:mculib3/src/modbus_slave.h ****     Interrupt& interrupt_DMA_channel; 
  25:mculib3/src/modbus_slave.h **** 
  26:mculib3/src/modbus_slave.h ****     int time {0}; //     
  27:mculib3/src/modbus_slave.h ****     int modbus_time {0};
  28:mculib3/src/modbus_slave.h **** 
  29:mculib3/src/modbus_slave.h ****     const uint8_t address;
  30:mculib3/src/modbus_slave.h ****     uint8_t func;
  31:mculib3/src/modbus_slave.h ****     uint16_t first_reg{0};
  32:mculib3/src/modbus_slave.h ****     uint16_t last_reg {0};
  33:mculib3/src/modbus_slave.h ****     uint16_t qty_reg  {0};
  34:mculib3/src/modbus_slave.h ****     uint8_t  qty_byte {0};
  35:mculib3/src/modbus_slave.h ****     uint16_t data;
  36:mculib3/src/modbus_slave.h ****     uint16_t crc{0};
  37:mculib3/src/modbus_slave.h ****     size_t last_message_size;
  38:mculib3/src/modbus_slave.h **** 
  39:mculib3/src/modbus_slave.h **** 
  40:mculib3/src/modbus_slave.h ****     uint16_t crc16 (uint8_t* data, uint8_t length);
  41:mculib3/src/modbus_slave.h ****     uint8_t  set_high_bit (uint8_t);
  42:mculib3/src/modbus_slave.h **** 
  43:mculib3/src/modbus_slave.h ****     bool check_CRC  ();
  44:mculib3/src/modbus_slave.h ****     bool check_value();
  45:mculib3/src/modbus_slave.h ****     bool check_regs (uint16_t qty_reg_device); // for 03 16
ARM GAS  /tmp/cc5K8h45.s 			page 14


  46:mculib3/src/modbus_slave.h ****     bool check_reg  (uint16_t qty_reg_device); // for 05
  47:mculib3/src/modbus_slave.h **** 
  48:mculib3/src/modbus_slave.h ****     void answer_error (Modbus_error_code);
  49:mculib3/src/modbus_slave.h ****     void answer_03();
  50:mculib3/src/modbus_slave.h ****     template <class function> void answer_16 (function reaction);
  51:mculib3/src/modbus_slave.h ****     void answer_05();
  52:mculib3/src/modbus_slave.h **** 
  53:mculib3/src/modbus_slave.h ****     void uartInterrupt()
  54:mculib3/src/modbus_slave.h ****     {
  55:mculib3/src/modbus_slave.h ****         if (uart.is_rx_IDLE()) 
  56:mculib3/src/modbus_slave.h ****             tick_subscribe();
  57:mculib3/src/modbus_slave.h ****     }
  58:mculib3/src/modbus_slave.h ****     void dmaInterrupt()
  59:mculib3/src/modbus_slave.h ****     {
  60:mculib3/src/modbus_slave.h ****         if (uart.is_tx_complete())
  61:mculib3/src/modbus_slave.h ****             uart.receive();
  62:mculib3/src/modbus_slave.h ****     }
  63:mculib3/src/modbus_slave.h **** 
  64:mculib3/src/modbus_slave.h ****     void notify() override 
  67              		.loc 2 64 10 is_stmt 1 view -0
  68              		.cfi_startproc
  69              		@ args = 0, pretend = 0, frame = 0
  70              		@ frame_needed = 0, uses_anonymous_args = 0
  71              		@ link register save eliminated.
  65:mculib3/src/modbus_slave.h ****     {
  66:mculib3/src/modbus_slave.h ****         time++;
  72              		.loc 2 66 9 is_stmt 0 view .LVU9
  73 0000 C369     		ldr	r3, [r0, #28]
  67:mculib3/src/modbus_slave.h ****     }
  74              		.loc 2 67 5 view .LVU10
  75              		@ sp needed
  66:mculib3/src/modbus_slave.h ****     }
  76              		.loc 2 66 9 view .LVU11
  77 0002 0133     		adds	r3, r3, #1
  78 0004 C361     		str	r3, [r0, #28]
  79              		.loc 2 67 5 view .LVU12
  80 0006 7047     		bx	lr
  81              		.cfi_endproc
  82              	.LFE4699:
  84              		.section	.text._ZN9Interrupt9interruptEv.isra.0,"ax",%progbits
  85              		.align	1
  86              		.syntax unified
  87              		.code	16
  88              		.thumb_func
  89              		.fpu softvfp
  91              	_ZN9Interrupt9interruptEv.isra.0:
  92              	.LFB4712:
  93              		.file 3 "mculib3/src/interrupt.h"
   1:mculib3/src/interrupt.h **** #pragma once
   2:mculib3/src/interrupt.h **** 
   3:mculib3/src/interrupt.h **** #include "periph.h"
   4:mculib3/src/interrupt.h **** 
   5:mculib3/src/interrupt.h **** #if defined(USE_MOCK_NVIC)
   6:mculib3/src/interrupt.h ****     inline static auto NVIC_EnableIRQ_t = mock::NVIC_EnableIRQ;
   7:mculib3/src/interrupt.h **** #else
   8:mculib3/src/interrupt.h ****     inline static auto NVIC_EnableIRQ_t = ::NVIC_EnableIRQ;
   9:mculib3/src/interrupt.h **** #endif
ARM GAS  /tmp/cc5K8h45.s 			page 15


  10:mculib3/src/interrupt.h **** 
  11:mculib3/src/interrupt.h **** ///     
  12:mculib3/src/interrupt.h **** struct Interrupting
  13:mculib3/src/interrupt.h **** {
  14:mculib3/src/interrupt.h ****     Interrupting* next {nullptr};
  15:mculib3/src/interrupt.h ****     virtual void interrupt() = 0;
  16:mculib3/src/interrupt.h **** };
  17:mculib3/src/interrupt.h **** 
  18:mculib3/src/interrupt.h **** class Interrupt 
  19:mculib3/src/interrupt.h **** {
  20:mculib3/src/interrupt.h ****     Interrupting* first{nullptr};
  21:mculib3/src/interrupt.h ****     const IRQn_Type irq_n;
  22:mculib3/src/interrupt.h **** 
  23:mculib3/src/interrupt.h **** public:
  24:mculib3/src/interrupt.h ****     Interrupt (IRQn_Type irq_n) : irq_n {irq_n} {}
  25:mculib3/src/interrupt.h **** 
  26:mculib3/src/interrupt.h ****     auto IRQn() const { return irq_n; }
  27:mculib3/src/interrupt.h **** 
  28:mculib3/src/interrupt.h ****     void enable() { NVIC_EnableIRQ_t(irq_n); }
  29:mculib3/src/interrupt.h **** 
  30:mculib3/src/interrupt.h ****     void subscribe(Interrupting* ps)
  31:mculib3/src/interrupt.h ****     {
  32:mculib3/src/interrupt.h ****         auto p = first;
  33:mculib3/src/interrupt.h ****         if (p) {
  34:mculib3/src/interrupt.h ****             while (p->next)
  35:mculib3/src/interrupt.h ****                 p = p->next;
  36:mculib3/src/interrupt.h ****             p->next = ps;
  37:mculib3/src/interrupt.h ****         } else {  
  38:mculib3/src/interrupt.h ****             first = ps;
  39:mculib3/src/interrupt.h ****         } 
  40:mculib3/src/interrupt.h ****     }
  41:mculib3/src/interrupt.h **** 
  42:mculib3/src/interrupt.h ****     void clear_subscribe() { first = nullptr; }
  43:mculib3/src/interrupt.h **** 
  44:mculib3/src/interrupt.h ****     void interrupt()
  94              		.loc 3 44 10 is_stmt 1 view -0
  95              		.cfi_startproc
  96              		@ args = 0, pretend = 0, frame = 0
  97              		@ frame_needed = 0, uses_anonymous_args = 0
  98 0000 10B5     		push	{r4, lr}
  99              	.LCFI0:
 100              		.cfi_def_cfa_offset 8
 101              		.cfi_offset 4, -8
 102              		.cfi_offset 14, -4
 103 0002 0400     		movs	r4, r0
 104              	.L7:
 105              	.LVL3:
  45:mculib3/src/interrupt.h ****     {
  46:mculib3/src/interrupt.h ****         auto p = first;
  47:mculib3/src/interrupt.h ****         while (p) {
 106              		.loc 3 47 9 view .LVU14
 107              		.loc 3 47 16 view .LVU15
 108 0004 002C     		cmp	r4, #0
 109 0006 05D0     		beq	.L5
  48:mculib3/src/interrupt.h ****             p->interrupt();
 110              		.loc 3 48 13 view .LVU16
 111              		.loc 3 48 26 is_stmt 0 view .LVU17
ARM GAS  /tmp/cc5K8h45.s 			page 16


 112 0008 2368     		ldr	r3, [r4]
 113              		.loc 3 48 25 view .LVU18
 114 000a 2000     		movs	r0, r4
 115 000c 1B68     		ldr	r3, [r3]
 116 000e 9847     		blx	r3
 117              	.LVL4:
  49:mculib3/src/interrupt.h ****             p = p->next;
 118              		.loc 3 49 13 is_stmt 1 view .LVU19
 119              		.loc 3 49 15 is_stmt 0 view .LVU20
 120 0010 6468     		ldr	r4, [r4, #4]
 121              	.LVL5:
  47:mculib3/src/interrupt.h ****             p->interrupt();
 122              		.loc 3 47 9 view .LVU21
 123 0012 F7E7     		b	.L7
 124              	.L5:
  50:mculib3/src/interrupt.h ****         }
  51:mculib3/src/interrupt.h ****     }
 125              		.loc 3 51 5 view .LVU22
 126              		@ sp needed
 127              	.LVL6:
 128              		.loc 3 51 5 view .LVU23
 129 0014 10BD     		pop	{r4, pc}
 130              		.cfi_endproc
 131              	.LFE4712:
 133              		.section	.text._ZN3Pin6is_setEv,"axG",%progbits,_ZN3Pin6is_setEv,comdat
 134              		.align	1
 135              		.weak	_ZN3Pin6is_setEv
 136              		.syntax unified
 137              		.code	16
 138              		.thumb_func
 139              		.fpu softvfp
 141              	_ZN3Pin6is_setEv:
 142              	.LVL7:
 143              	.LFB2182:
 144              		.file 4 "mculib3/src/pin.h"
   1:mculib3/src/pin.h **** #pragma once
   2:mculib3/src/pin.h **** 
   3:mculib3/src/pin.h **** #include "periph_gpio.h"
   4:mculib3/src/pin.h **** #include "pins.h"
   5:mculib3/src/pin.h **** #include "meta.h"
   6:mculib3/src/pin.h **** 
   7:mculib3/src/pin.h **** #if defined(USE_MOCK_GPIO)
   8:mculib3/src/pin.h **** using GPIO = mock::GPIO;
   9:mculib3/src/pin.h **** #else
  10:mculib3/src/pin.h **** using GPIO = mcu::GPIO;
  11:mculib3/src/pin.h **** #endif
  12:mculib3/src/pin.h **** 
  13:mculib3/src/pin.h **** class Pin
  14:mculib3/src/pin.h **** {
  15:mculib3/src/pin.h ****    GPIO &port;
  16:mculib3/src/pin.h ****    const int n;
  17:mculib3/src/pin.h **** 
  18:mculib3/src/pin.h **** public:
  19:mculib3/src/pin.h ****    Pin(GPIO &port, int n) : port{port}, n{n} {}
  20:mculib3/src/pin.h **** 
  21:mculib3/src/pin.h ****    template <class Pin_, mcu::PinMode mode = mcu::PinMode::Input>
  22:mculib3/src/pin.h ****    static auto &make()
ARM GAS  /tmp/cc5K8h45.s 			page 17


  23:mculib3/src/pin.h ****    {
  24:mculib3/src/pin.h ****       static Pin pin{mcu::make_reference<Pin_::periph>(), Pin_::n};
  25:mculib3/src/pin.h ****       mcu::make_reference<mcu::Periph::RCC>()
  26:mculib3/src/pin.h ****           .template clock_enable<Pin_::periph>();
  27:mculib3/src/pin.h ****       pin.port.template init<Pin_, mode>();
  28:mculib3/src/pin.h ****       return pin;
  29:mculib3/src/pin.h ****    }
  30:mculib3/src/pin.h **** 
  31:mculib3/src/pin.h ****    void set() { port.set(n); }
  32:mculib3/src/pin.h ****    void clear() { port.clear(n); }
  33:mculib3/src/pin.h ****    bool is_set() { return port.is_set(n); }
 145              		.loc 4 33 9 is_stmt 1 view -0
 146              		.cfi_startproc
 147              		@ args = 0, pretend = 0, frame = 0
 148              		@ frame_needed = 0, uses_anonymous_args = 0
 149              		@ link register save eliminated.
 150              		.loc 4 33 20 view .LVU25
 151              		.loc 4 33 9 is_stmt 0 view .LVU26
 152 0000 0300     		movs	r3, r0
 153              		.loc 4 33 27 view .LVU27
 154 0002 0268     		ldr	r2, [r0]
 155              	.LVL8:
 156              	.LBB1082:
 157              	.LBI1082:
 158              		.file 5 "mculib3/src/periph/gpio_f0_f4_f7.h"
   1:mculib3/src/periph/gpio_f0_f4_f7.h **** #pragma once
   2:mculib3/src/periph/gpio_f0_f4_f7.h **** 
   3:mculib3/src/periph/gpio_f0_f4_f7.h **** #include "bits_gpio_f0_f4_f7.h"
   4:mculib3/src/periph/gpio_f0_f4_f7.h **** 
   5:mculib3/src/periph/gpio_f0_f4_f7.h **** namespace mcu
   6:mculib3/src/periph/gpio_f0_f4_f7.h **** {
   7:mculib3/src/periph/gpio_f0_f4_f7.h **** 
   8:mculib3/src/periph/gpio_f0_f4_f7.h **** enum class PinMode
   9:mculib3/src/periph/gpio_f0_f4_f7.h **** {
  10:mculib3/src/periph/gpio_f0_f4_f7.h ****    Input,
  11:mculib3/src/periph/gpio_f0_f4_f7.h ****    Output,
  12:mculib3/src/periph/gpio_f0_f4_f7.h ****    Analog,
  13:mculib3/src/periph/gpio_f0_f4_f7.h ****    Alternate_0,
  14:mculib3/src/periph/gpio_f0_f4_f7.h ****    Alternate_1,
  15:mculib3/src/periph/gpio_f0_f4_f7.h ****    Alternate_2,
  16:mculib3/src/periph/gpio_f0_f4_f7.h ****    Alternate_3,
  17:mculib3/src/periph/gpio_f0_f4_f7.h ****    Alternate_4,
  18:mculib3/src/periph/gpio_f0_f4_f7.h ****    Alternate_5,
  19:mculib3/src/periph/gpio_f0_f4_f7.h ****    Alternate_6,
  20:mculib3/src/periph/gpio_f0_f4_f7.h ****    Alternate_7,
  21:mculib3/src/periph/gpio_f0_f4_f7.h **** #if defined(STM32F4) or defined(STM32F7)
  22:mculib3/src/periph/gpio_f0_f4_f7.h ****    Alternate_8,
  23:mculib3/src/periph/gpio_f0_f4_f7.h ****    Alternate_9,
  24:mculib3/src/periph/gpio_f0_f4_f7.h ****    Alternate_10,
  25:mculib3/src/periph/gpio_f0_f4_f7.h ****    Alternate_11,
  26:mculib3/src/periph/gpio_f0_f4_f7.h ****    Alternate_12,
  27:mculib3/src/periph/gpio_f0_f4_f7.h ****    Alternate_13,
  28:mculib3/src/periph/gpio_f0_f4_f7.h ****    Alternate_14,
  29:mculib3/src/periph/gpio_f0_f4_f7.h ****    Alternate_15,
  30:mculib3/src/periph/gpio_f0_f4_f7.h **** #endif
  31:mculib3/src/periph/gpio_f0_f4_f7.h **** #if defined(STM32F4)
  32:mculib3/src/periph/gpio_f0_f4_f7.h ****    USART1_TX = Alternate_7,
ARM GAS  /tmp/cc5K8h45.s 			page 18


  33:mculib3/src/periph/gpio_f0_f4_f7.h ****    USART1_RX = Alternate_7,
  34:mculib3/src/periph/gpio_f0_f4_f7.h ****    USART2_TX = Alternate_7,
  35:mculib3/src/periph/gpio_f0_f4_f7.h ****    USART2_RX = Alternate_7,
  36:mculib3/src/periph/gpio_f0_f4_f7.h ****    USART3_TX = Alternate_7,
  37:mculib3/src/periph/gpio_f0_f4_f7.h ****    USART3_RX = Alternate_7,
  38:mculib3/src/periph/gpio_f0_f4_f7.h ****    USART4_TX = Alternate_8,
  39:mculib3/src/periph/gpio_f0_f4_f7.h ****    USART4_RX = Alternate_8,
  40:mculib3/src/periph/gpio_f0_f4_f7.h ****    USART5_TX = Alternate_8,
  41:mculib3/src/periph/gpio_f0_f4_f7.h ****    USART5_RX = Alternate_8,
  42:mculib3/src/periph/gpio_f0_f4_f7.h ****    USART6_TX = Alternate_8,
  43:mculib3/src/periph/gpio_f0_f4_f7.h ****    USART6_RX = Alternate_8,
  44:mculib3/src/periph/gpio_f0_f4_f7.h **** #endif
  45:mculib3/src/periph/gpio_f0_f4_f7.h **** };
  46:mculib3/src/periph/gpio_f0_f4_f7.h **** 
  47:mculib3/src/periph/gpio_f0_f4_f7.h **** class GPIO
  48:mculib3/src/periph/gpio_f0_f4_f7.h **** {
  49:mculib3/src/periph/gpio_f0_f4_f7.h ****    volatile GPIO_bits::MODER MODER;     // mode register,                offset: 0x00
  50:mculib3/src/periph/gpio_f0_f4_f7.h ****    volatile GPIO_bits::OTYPER OTYPER;   // output type register,         offset: 0x04
  51:mculib3/src/periph/gpio_f0_f4_f7.h ****    volatile GPIO_bits::OSPEEDR OSPEEDR; // output speed register,        offset: 0x08
  52:mculib3/src/periph/gpio_f0_f4_f7.h ****    volatile GPIO_bits::PUPDR PUPDR;     // pull-up/pull-down register,   offset: 0x0C
  53:mculib3/src/periph/gpio_f0_f4_f7.h ****    volatile GPIO_bits::DR IDR;          // input data register,          offset: 0x10
  54:mculib3/src/periph/gpio_f0_f4_f7.h ****    volatile GPIO_bits::DR ODR;          // output data register,         offset: 0x14
  55:mculib3/src/periph/gpio_f0_f4_f7.h ****    volatile uint32_t BSRR;              // bit set/reset register,       offset: 0x18
  56:mculib3/src/periph/gpio_f0_f4_f7.h ****    volatile uint32_t LCKR;              // configuration lock register,  offset: 0x1C
  57:mculib3/src/periph/gpio_f0_f4_f7.h ****    volatile GPIO_bits::AFR AFR;         // alternate function registers, offset: 0x20-0x24
  58:mculib3/src/periph/gpio_f0_f4_f7.h **** #if defined(STM32F0)
  59:mculib3/src/periph/gpio_f0_f4_f7.h ****    volatile uint32_t BRR; // bit reset register,           offset: 0x28
  60:mculib3/src/periph/gpio_f0_f4_f7.h **** #endif
  61:mculib3/src/periph/gpio_f0_f4_f7.h **** 
  62:mculib3/src/periph/gpio_f0_f4_f7.h **** public:
  63:mculib3/src/periph/gpio_f0_f4_f7.h ****    using CMSIS_type = GPIO_TypeDef;
  64:mculib3/src/periph/gpio_f0_f4_f7.h ****    using Mode = GPIO_bits::MODER::Mode;
  65:mculib3/src/periph/gpio_f0_f4_f7.h ****    using AF = GPIO_bits::AFR::AF;
  66:mculib3/src/periph/gpio_f0_f4_f7.h **** 
  67:mculib3/src/periph/gpio_f0_f4_f7.h ****    auto &like_CMSIS() { return *reinterpret_cast<CMSIS_type *>(this); }
  68:mculib3/src/periph/gpio_f0_f4_f7.h **** 
  69:mculib3/src/periph/gpio_f0_f4_f7.h ****    void set(size_t n) { BSRR = (1 << n); }
  70:mculib3/src/periph/gpio_f0_f4_f7.h ****    void clear(size_t n) { BSRR = (1 << (n + 16)); }
  71:mculib3/src/periph/gpio_f0_f4_f7.h ****    bool is_set(size_t n) { return IDR.reg & (1 << n); }
 159              		.loc 5 71 9 is_stmt 1 view .LVU28
 160              	.LBB1083:
 161              		.loc 5 71 28 view .LVU29
 162              	.LBE1083:
 163              	.LBE1082:
 164              		.loc 4 33 43 is_stmt 0 view .LVU30
 165              		@ sp needed
 166              	.LBB1085:
 167              	.LBB1084:
 168              		.loc 5 71 39 view .LVU31
 169 0004 1069     		ldr	r0, [r2, #16]
 170              	.LVL9:
 171              		.loc 5 71 48 view .LVU32
 172 0006 5A68     		ldr	r2, [r3, #4]
 173 0008 0123     		movs	r3, #1
 174              	.LVL10:
 175              		.loc 5 71 48 view .LVU33
 176 000a 9340     		lsls	r3, r3, r2
ARM GAS  /tmp/cc5K8h45.s 			page 19


 177              		.loc 5 71 43 view .LVU34
 178 000c 1840     		ands	r0, r3
 179              		.loc 5 71 52 view .LVU35
 180 000e 431E     		subs	r3, r0, #1
 181 0010 9841     		sbcs	r0, r0, r3
 182              	.LBE1084:
 183              	.LBE1085:
 184              		.loc 4 33 40 view .LVU36
 185 0012 C0B2     		uxtb	r0, r0
 186              		.loc 4 33 43 view .LVU37
 187 0014 7047     		bx	lr
 188              		.cfi_endproc
 189              	.LFE2182:
 191              		.section	.text._ZN3PinaSEb,"axG",%progbits,_ZN3PinaSEb,comdat
 192              		.align	1
 193              		.weak	_ZN3PinaSEb
 194              		.syntax unified
 195              		.code	16
 196              		.thumb_func
 197              		.fpu softvfp
 199              	_ZN3PinaSEb:
 200              	.LVL11:
 201              	.LFB2184:
  34:mculib3/src/pin.h ****    void toggle() { port.toggle(n); }
  35:mculib3/src/pin.h **** 
  36:mculib3/src/pin.h ****    bool operator=(bool v)
 202              		.loc 4 36 9 is_stmt 1 view -0
 203              		.cfi_startproc
 204              		@ args = 0, pretend = 0, frame = 0
 205              		@ frame_needed = 0, uses_anonymous_args = 0
 206              		@ link register save eliminated.
  37:mculib3/src/pin.h ****    {
  38:mculib3/src/pin.h ****       v ? set() : clear();
 207              		.loc 4 38 7 view .LVU39
  36:mculib3/src/pin.h ****    {
 208              		.loc 4 36 9 is_stmt 0 view .LVU40
 209 0000 0300     		movs	r3, r0
 210 0002 0800     		movs	r0, r1
 211              	.LVL12:
  36:mculib3/src/pin.h ****    {
 212              		.loc 4 36 9 view .LVU41
 213 0004 06CB     		ldmia	r3!, {r1, r2}
 214              	.LVL13:
  36:mculib3/src/pin.h ****    {
 215              		.loc 4 36 9 view .LVU42
 216 0006 0123     		movs	r3, #1
 217              	.LVL14:
 218              		.loc 4 38 9 view .LVU43
 219 0008 0028     		cmp	r0, #0
 220 000a 02D0     		beq	.L10
 221              	.L12:
 222              	.LBB1094:
 223              	.LBB1095:
 224              	.LBB1096:
 225              	.LBB1097:
  70:mculib3/src/periph/gpio_f0_f4_f7.h ****    bool is_set(size_t n) { return IDR.reg & (1 << n); }
 226              		.loc 5 70 37 view .LVU44
ARM GAS  /tmp/cc5K8h45.s 			page 20


 227 000c 9340     		lsls	r3, r3, r2
 228              	.LBE1097:
 229              	.LBE1096:
 230              	.LBE1095:
 231              	.LBE1094:
  39:mculib3/src/pin.h ****       return v;
  40:mculib3/src/pin.h ****    }
 232              		.loc 4 40 4 view .LVU45
 233              		@ sp needed
 234              	.LBB1104:
 235              	.LBB1102:
 236              	.LBB1100:
 237              	.LBB1098:
  70:mculib3/src/periph/gpio_f0_f4_f7.h ****    bool is_set(size_t n) { return IDR.reg & (1 << n); }
 238              		.loc 5 70 32 view .LVU46
 239 000e 8B61     		str	r3, [r1, #24]
 240              	.LBE1098:
 241              	.LBE1100:
 242              	.LBE1102:
 243              	.LBE1104:
  39:mculib3/src/pin.h ****       return v;
 244              		.loc 4 39 7 is_stmt 1 view .LVU47
 245              		.loc 4 40 4 is_stmt 0 view .LVU48
 246 0010 7047     		bx	lr
 247              	.L10:
 248              	.LVL15:
 249              	.LBB1105:
 250              	.LBI1094:
  32:mculib3/src/pin.h ****    bool is_set() { return port.is_set(n); }
 251              		.loc 4 32 9 is_stmt 1 view .LVU49
 252              	.LBB1103:
  32:mculib3/src/pin.h ****    bool is_set() { return port.is_set(n); }
 253              		.loc 4 32 19 view .LVU50
 254              	.LBB1101:
 255              	.LBI1096:
  70:mculib3/src/periph/gpio_f0_f4_f7.h ****    bool is_set(size_t n) { return IDR.reg & (1 << n); }
 256              		.loc 5 70 9 view .LVU51
 257              	.LBB1099:
  70:mculib3/src/periph/gpio_f0_f4_f7.h ****    bool is_set(size_t n) { return IDR.reg & (1 << n); }
 258              		.loc 5 70 27 view .LVU52
  70:mculib3/src/periph/gpio_f0_f4_f7.h ****    bool is_set(size_t n) { return IDR.reg & (1 << n); }
 259              		.loc 5 70 43 is_stmt 0 view .LVU53
 260 0012 1032     		adds	r2, r2, #16
 261 0014 FAE7     		b	.L12
 262              	.LBE1099:
 263              	.LBE1101:
 264              	.LBE1103:
 265              	.LBE1105:
 266              		.cfi_endproc
 267              	.LFE2184:
 269              		.section	.text._ZN9Publisher6notifyEv,"axG",%progbits,_ZN9Publisher6notifyEv,comdat
 270              		.align	1
 271              		.weak	_ZN9Publisher6notifyEv
 272              		.syntax unified
 273              		.code	16
 274              		.thumb_func
 275              		.fpu softvfp
ARM GAS  /tmp/cc5K8h45.s 			page 21


 277              	_ZN9Publisher6notifyEv:
 278              	.LVL16:
 279              	.LFB3564:
 280              		.file 6 "mculib3/src/subscriber.h"
   1:mculib3/src/subscriber.h **** #pragma once
   2:mculib3/src/subscriber.h **** 
   3:mculib3/src/subscriber.h **** #include "list.h"
   4:mculib3/src/subscriber.h **** #include "systick.h"
   5:mculib3/src/subscriber.h **** 
   6:mculib3/src/subscriber.h **** struct Subscriber : Listable<Subscriber> {
   7:mculib3/src/subscriber.h ****     virtual void notify() = 0;
   8:mculib3/src/subscriber.h **** };
   9:mculib3/src/subscriber.h **** 
  10:mculib3/src/subscriber.h **** struct Publisher : private List<Subscriber>
  11:mculib3/src/subscriber.h **** {
  12:mculib3/src/subscriber.h ****     
  13:mculib3/src/subscriber.h ****     void clear(){clear_subscribe();}
  14:mculib3/src/subscriber.h ****     void subscribe  (Subscriber& v) { push_back(v); }
  15:mculib3/src/subscriber.h ****     void unsubscribe(Subscriber& v) { remove(v);    }
  16:mculib3/src/subscriber.h ****     // ,     subscriber  *this
  17:mculib3/src/subscriber.h ****     void notify() {
 281              		.loc 6 17 10 is_stmt 1 view -0
 282              		.cfi_startproc
 283              		@ args = 0, pretend = 0, frame = 0
 284              		@ frame_needed = 0, uses_anonymous_args = 0
  18:mculib3/src/subscriber.h ****         for (auto& subscriber : *this)
 285              		.loc 6 18 9 view .LVU55
  17:mculib3/src/subscriber.h ****         for (auto& subscriber : *this)
 286              		.loc 6 17 10 is_stmt 0 view .LVU56
 287 0000 10B5     		push	{r4, lr}
 288              	.LCFI1:
 289              		.cfi_def_cfa_offset 8
 290              		.cfi_offset 4, -8
 291              		.cfi_offset 14, -4
 292              	.LBB1106:
 293              		.loc 6 18 34 view .LVU57
 294 0002 0468     		ldr	r4, [r0]
 295              	.LBB1107:
 296              	.LBI1107:
 297              		.file 7 "mculib3/src/list.h"
   1:mculib3/src/list.h **** #pragma once
   2:mculib3/src/list.h **** 
   3:mculib3/src/list.h **** #include <algorithm>
   4:mculib3/src/list.h **** 
   5:mculib3/src/list.h **** 
   6:mculib3/src/list.h **** template<class T> struct Listable
   7:mculib3/src/list.h **** {
   8:mculib3/src/list.h ****    T* prev {nullptr};
   9:mculib3/src/list.h ****    T* next {nullptr};
  10:mculib3/src/list.h **** };
  11:mculib3/src/list.h **** 
  12:mculib3/src/list.h **** template<class T> class List
  13:mculib3/src/list.h **** {
  14:mculib3/src/list.h ****    T* first {nullptr};
  15:mculib3/src/list.h ****    T* last  {nullptr};
  16:mculib3/src/list.h **** public:
  17:mculib3/src/list.h ****    class Iterator
ARM GAS  /tmp/cc5K8h45.s 			page 22


  18:mculib3/src/list.h ****    {
  19:mculib3/src/list.h ****       T* p {nullptr};
  20:mculib3/src/list.h ****    public:
  21:mculib3/src/list.h ****       using iterator_category = std::input_iterator_tag;
  22:mculib3/src/list.h ****       using value_type        = T;
  23:mculib3/src/list.h ****       using difference_type   = T;
  24:mculib3/src/list.h ****       using pointer           = const T*;
  25:mculib3/src/list.h ****       using reference         = T;
  26:mculib3/src/list.h ****       Iterator (T*);
  27:mculib3/src/list.h ****       Iterator() = default;
  28:mculib3/src/list.h ****       operator T*() { return p; }
  29:mculib3/src/list.h ****       T&        operator*  () const;
  30:mculib3/src/list.h ****       T*        operator-> () const { return p; }
  31:mculib3/src/list.h ****       bool      operator!= (const Iterator&) const;
  32:mculib3/src/list.h ****       Iterator& operator++ ();
  33:mculib3/src/list.h ****    };
  34:mculib3/src/list.h **** 
  35:mculib3/src/list.h ****    void clear_subscribe(){first = nullptr; last = nullptr;}
  36:mculib3/src/list.h ****    void push_back  (T&);
  37:mculib3/src/list.h ****    void push_front (T&);
  38:mculib3/src/list.h ****    void remove     (T&);
  39:mculib3/src/list.h ****    void insert  (Iterator, T&);
  40:mculib3/src/list.h ****    void clear();
  41:mculib3/src/list.h ****    Iterator begin();
  42:mculib3/src/list.h ****    Iterator end();
  43:mculib3/src/list.h **** };
  44:mculib3/src/list.h **** 
  45:mculib3/src/list.h **** 
  46:mculib3/src/list.h **** 
  47:mculib3/src/list.h **** 
  48:mculib3/src/list.h **** 
  49:mculib3/src/list.h **** 
  50:mculib3/src/list.h **** template<class T>
  51:mculib3/src/list.h **** void List<T>::push_back (T& v)
  52:mculib3/src/list.h **** {
  53:mculib3/src/list.h ****    v.prev = last;
  54:mculib3/src/list.h ****    if (last)
  55:mculib3/src/list.h ****       last->next = &v;
  56:mculib3/src/list.h ****    last = &v;
  57:mculib3/src/list.h ****    if (not first)
  58:mculib3/src/list.h ****       first = &v;
  59:mculib3/src/list.h **** }
  60:mculib3/src/list.h **** 
  61:mculib3/src/list.h **** 
  62:mculib3/src/list.h **** template<class T>
  63:mculib3/src/list.h **** void List<T>::push_front (T& v)
  64:mculib3/src/list.h **** {
  65:mculib3/src/list.h ****    v.next = first;
  66:mculib3/src/list.h ****    if (first)
  67:mculib3/src/list.h ****       first->prev = &v;
  68:mculib3/src/list.h ****    first = &v;
  69:mculib3/src/list.h ****    if (not last)
  70:mculib3/src/list.h ****       last = &v;
  71:mculib3/src/list.h **** }
  72:mculib3/src/list.h **** 
  73:mculib3/src/list.h **** 
  74:mculib3/src/list.h **** template<class T>
ARM GAS  /tmp/cc5K8h45.s 			page 23


  75:mculib3/src/list.h **** void List<T>::remove (T& v)
  76:mculib3/src/list.h **** {
  77:mculib3/src/list.h ****    if (v.prev and v.next) {         //   
  78:mculib3/src/list.h ****       v.prev->next = v.next;
  79:mculib3/src/list.h ****       v.next->prev = v.prev;
  80:mculib3/src/list.h ****    } else if (v.next) {             //  
  81:mculib3/src/list.h ****       first = v.next;
  82:mculib3/src/list.h ****       first->prev = nullptr;
  83:mculib3/src/list.h ****       if (not first) last = nullptr;
  84:mculib3/src/list.h ****    } else if (v.prev) {             //  
  85:mculib3/src/list.h ****       last = v.prev;
  86:mculib3/src/list.h ****       last->next = nullptr;
  87:mculib3/src/list.h ****       if (not last) first = nullptr;
  88:mculib3/src/list.h ****    } else {                         //   
  89:mculib3/src/list.h ****       first = nullptr;
  90:mculib3/src/list.h ****       last  = nullptr;
  91:mculib3/src/list.h ****    }
  92:mculib3/src/list.h ****    v.prev = nullptr;
  93:mculib3/src/list.h ****    v.next = nullptr;
  94:mculib3/src/list.h **** 
  95:mculib3/src/list.h **** }
  96:mculib3/src/list.h **** 
  97:mculib3/src/list.h **** 
  98:mculib3/src/list.h **** 
  99:mculib3/src/list.h **** template<class T>
 100:mculib3/src/list.h **** void List<T>::insert (typename List<T>::Iterator it, T& v)
 101:mculib3/src/list.h **** {
 102:mculib3/src/list.h ****    if (it == begin()) {
 103:mculib3/src/list.h ****       push_front (v);
 104:mculib3/src/list.h ****    } else if (it == end()) {
 105:mculib3/src/list.h ****       push_back (v);
 106:mculib3/src/list.h ****    } else {
 107:mculib3/src/list.h ****       v.prev = it->prev;
 108:mculib3/src/list.h ****       v.next = it;
 109:mculib3/src/list.h ****       it->prev = &v;
 110:mculib3/src/list.h ****       v.prev->next = &v;
 111:mculib3/src/list.h ****    }
 112:mculib3/src/list.h **** }
 113:mculib3/src/list.h **** 
 114:mculib3/src/list.h **** template<class T>
 115:mculib3/src/list.h **** void List<T>::clear()
 116:mculib3/src/list.h **** {
 117:mculib3/src/list.h ****    for (auto& v : *this) {
 118:mculib3/src/list.h ****       v.prev = nullptr;
 119:mculib3/src/list.h ****       v.next = nullptr;
 120:mculib3/src/list.h ****    }
 121:mculib3/src/list.h ****    first = nullptr;
 122:mculib3/src/list.h ****    last  = nullptr;
 123:mculib3/src/list.h **** }
 124:mculib3/src/list.h **** 
 125:mculib3/src/list.h **** 
 126:mculib3/src/list.h **** template<class T>
 127:mculib3/src/list.h **** typename List<T>::Iterator List<T>::begin()
 298              		.loc 7 127 28 is_stmt 1 view .LVU58
 299              	.LVL17:
 300              	.LBB1108:
 301              	.LBI1108:
ARM GAS  /tmp/cc5K8h45.s 			page 24


 128:mculib3/src/list.h **** {
 129:mculib3/src/list.h ****    return List<T>::Iterator {first};
 130:mculib3/src/list.h **** }
 131:mculib3/src/list.h **** 
 132:mculib3/src/list.h **** 
 133:mculib3/src/list.h **** template<class T>
 134:mculib3/src/list.h **** typename List<T>::Iterator List<T>::end()
 135:mculib3/src/list.h **** {
 136:mculib3/src/list.h ****    return List<T>::Iterator();
 137:mculib3/src/list.h **** }
 138:mculib3/src/list.h **** 
 139:mculib3/src/list.h **** 
 140:mculib3/src/list.h **** 
 141:mculib3/src/list.h **** /// Iterator
 142:mculib3/src/list.h **** template<class T>
 143:mculib3/src/list.h **** List<T>::Iterator::Iterator (T* other) : p {other} {}
 302              		.loc 7 143 1 view .LVU59
 303              		.loc 7 143 1 is_stmt 0 view .LVU60
 304              	.LBE1108:
 305              	.LBE1107:
 306              	.LBB1109:
 307              	.LBI1109:
 134:mculib3/src/list.h **** {
 308              		.loc 7 134 28 is_stmt 1 view .LVU61
 309              	.LBB1110:
 310              	.LBI1110:
  27:mculib3/src/list.h ****       operator T*() { return p; }
 311              		.loc 7 27 7 view .LVU62
 312              	.L15:
  27:mculib3/src/list.h ****       operator T*() { return p; }
 313              		.loc 7 27 7 is_stmt 0 view .LVU63
 314              	.LBE1110:
 315              	.LBE1109:
 316              		.loc 6 18 34 is_stmt 1 discriminator 3 view .LVU64
 317              		.loc 6 18 34 is_stmt 0 discriminator 3 view .LVU65
 318 0004 002C     		cmp	r4, #0
 319 0006 05D0     		beq	.L13
 320              	.LVL18:
  19:mculib3/src/subscriber.h ****             subscriber.notify();
 321              		.loc 6 19 13 is_stmt 1 discriminator 2 view .LVU66
 322              		.loc 6 19 31 is_stmt 0 discriminator 2 view .LVU67
 323 0008 2368     		ldr	r3, [r4]
 324              		.loc 6 19 30 discriminator 2 view .LVU68
 325 000a 2000     		movs	r0, r4
 326 000c 1B68     		ldr	r3, [r3]
 327 000e 9847     		blx	r3
 328              	.LVL19:
  18:mculib3/src/subscriber.h ****             subscriber.notify();
 329              		.loc 6 18 9 is_stmt 1 discriminator 2 view .LVU69
 330              	.LBB1111:
 331              	.LBI1111:
 144:mculib3/src/list.h **** 
 145:mculib3/src/list.h **** template<class T>
 146:mculib3/src/list.h **** T& List<T>::Iterator::operator* () const 
 147:mculib3/src/list.h **** {
 148:mculib3/src/list.h ****    return *p;
 149:mculib3/src/list.h **** }
ARM GAS  /tmp/cc5K8h45.s 			page 25


 150:mculib3/src/list.h **** 
 151:mculib3/src/list.h **** template<class T>
 152:mculib3/src/list.h **** bool List<T>::Iterator::operator!= (const List<T>::Iterator& other) const
 153:mculib3/src/list.h **** {
 154:mculib3/src/list.h ****    return p != other.p;
 155:mculib3/src/list.h **** }
 156:mculib3/src/list.h **** 
 157:mculib3/src/list.h **** template<class T>
 158:mculib3/src/list.h **** typename List<T>::Iterator& List<T>::Iterator::operator++ ()
 332              		.loc 7 158 29 discriminator 2 view .LVU70
 333              	.LBB1112:
 159:mculib3/src/list.h **** {
 160:mculib3/src/list.h ****    p = p->next;
 334              		.loc 7 160 11 is_stmt 0 discriminator 2 view .LVU71
 335 0010 A468     		ldr	r4, [r4, #8]
 336              	.LVL20:
 161:mculib3/src/list.h ****    return *this;
 337              		.loc 7 161 12 discriminator 2 view .LVU72
 338 0012 F7E7     		b	.L15
 339              	.LVL21:
 340              	.L13:
 341              		.loc 7 161 12 discriminator 2 view .LVU73
 342              	.LBE1112:
 343              	.LBE1111:
 344              	.LBE1106:
  20:mculib3/src/subscriber.h ****     }
 345              		.loc 6 20 5 view .LVU74
 346              		@ sp needed
 347              	.LVL22:
 348              		.loc 6 20 5 view .LVU75
 349 0014 10BD     		pop	{r4, pc}
 350              		.cfi_endproc
 351              	.LFE3564:
 353              		.global	__aeabi_uidivmod
 354              		.section	.text._ZN11TickUpdater9interruptEv,"ax",%progbits
 355              		.align	1
 356              		.global	_ZN11TickUpdater9interruptEv
 357              		.syntax unified
 358              		.code	16
 359              		.thumb_func
 360              		.fpu softvfp
 362              	_ZN11TickUpdater9interruptEv:
 363              	.LVL23:
 364              	.LFB3607:
 365              		.file 8 "mculib3/src/timers.h"
   1:mculib3/src/timers.h **** #pragma once
   2:mculib3/src/timers.h **** 
   3:mculib3/src/timers.h **** #include <cstdint>
   4:mculib3/src/timers.h **** #include "subscriber.h"
   5:mculib3/src/timers.h **** #include "systick.h"
   6:mculib3/src/timers.h **** #include "literals.h"
   7:mculib3/src/timers.h **** #include "function.h"
   8:mculib3/src/timers.h **** #ifdef USE_MOCK_SYSTICK
   9:mculib3/src/timers.h **** using mock::SysTick;
  10:mculib3/src/timers.h **** #else
  11:mculib3/src/timers.h **** using mcu::SysTick;
  12:mculib3/src/timers.h **** #endif
ARM GAS  /tmp/cc5K8h45.s 			page 26


  13:mculib3/src/timers.h **** 
  14:mculib3/src/timers.h **** 
  15:mculib3/src/timers.h **** 
  16:mculib3/src/timers.h **** enum Faster {
  17:mculib3/src/timers.h ****      x2 = 2, x4 = 4, x5 = 5, x8 = 8, x10 = 10,
  18:mculib3/src/timers.h **** };
  19:mculib3/src/timers.h **** 
  20:mculib3/src/timers.h **** 
  21:mculib3/src/timers.h **** struct TickUpdater : Publisher
  22:mculib3/src/timers.h **** {
  23:mculib3/src/timers.h ****     TickUpdater() { REF(SysTick).initInterrupt<1000_us>(); }
  24:mculib3/src/timers.h ****     template<Faster multiplier> // multiplier how many subticks in tick
  25:mculib3/src/timers.h ****     void subscribe_subtick (Subscriber& v);
  26:mculib3/src/timers.h ****     void interrupt();
  27:mculib3/src/timers.h **** 
  28:mculib3/src/timers.h **** 
  29:mculib3/src/timers.h **** private:
  30:mculib3/src/timers.h ****     struct Subtick : Publisher {} subtick {};
  31:mculib3/src/timers.h ****     size_t subtick_cnt {0};
  32:mculib3/src/timers.h ****     size_t subtick_qty {1};
  33:mculib3/src/timers.h **** } tickUpdater{};
  34:mculib3/src/timers.h **** 
  35:mculib3/src/timers.h **** 
  36:mculib3/src/timers.h **** 
  37:mculib3/src/timers.h **** extern "C" void SysTick_Handler()
  38:mculib3/src/timers.h **** {
  39:mculib3/src/timers.h ****     tickUpdater.interrupt();
  40:mculib3/src/timers.h **** }
  41:mculib3/src/timers.h **** 
  42:mculib3/src/timers.h **** 
  43:mculib3/src/timers.h **** 
  44:mculib3/src/timers.h **** class TickSubscriber : Subscriber
  45:mculib3/src/timers.h **** {
  46:mculib3/src/timers.h **** protected:
  47:mculib3/src/timers.h ****     bool subscribed {false};
  48:mculib3/src/timers.h ****     void tick_subscribe();
  49:mculib3/src/timers.h ****     void tick_unsubscribe();
  50:mculib3/src/timers.h ****     template<Faster multiplier> // multiplier how many subticks in tick
  51:mculib3/src/timers.h ****     void tick_subscribe();
  52:mculib3/src/timers.h **** };
  53:mculib3/src/timers.h **** 
  54:mculib3/src/timers.h **** 
  55:mculib3/src/timers.h **** 
  56:mculib3/src/timers.h **** class Timer : TickSubscriber
  57:mculib3/src/timers.h **** {
  58:mculib3/src/timers.h **** public:
  59:mculib3/src/timers.h ****     Timer() = default;
  60:mculib3/src/timers.h ****     Timer (uint32_t ms) { start(ms); }
  61:mculib3/src/timers.h ****     ~Timer () {tick_unsubscribe();}
  62:mculib3/src/timers.h **** 
  63:mculib3/src/timers.h ****     void     start   (uint32_t ms); ///     
  64:mculib3/src/timers.h ****     bool     event();   ///  true,     
  65:mculib3/src/timers.h ****     bool     done();    ///  true,     
  66:mculib3/src/timers.h ****     void     pause();   ///  ,    
  67:mculib3/src/timers.h ****     void     start();   ///      
  68:mculib3/src/timers.h ****     void     stop();    ///     
  69:mculib3/src/timers.h ****     bool     isGreater (uint32_t val); ///  true,   
ARM GAS  /tmp/cc5K8h45.s 			page 27


  70:mculib3/src/timers.h ****     bool     isCount(); ///  true  ,   
  71:mculib3/src/timers.h ****     uint32_t timePassed(); ///   
  72:mculib3/src/timers.h ****     uint32_t timeLeft();   ///   
  73:mculib3/src/timers.h ****     template<class function>
  74:mculib3/src/timers.h ****     void     event (function); ///  function,    
  75:mculib3/src/timers.h ****     volatile uint32_t timeSet {0};
  76:mculib3/src/timers.h **** 
  77:mculib3/src/timers.h **** 
  78:mculib3/src/timers.h **** private:
  79:mculib3/src/timers.h ****     volatile uint32_t timePassed_ {0};	
  80:mculib3/src/timers.h **** 
  81:mculib3/src/timers.h ****     void notify() override { timePassed_++; }
  82:mculib3/src/timers.h **** };
  83:mculib3/src/timers.h **** 
  84:mculib3/src/timers.h **** 
  85:mculib3/src/timers.h **** 
  86:mculib3/src/timers.h **** 
  87:mculib3/src/timers.h **** 
  88:mculib3/src/timers.h **** 
  89:mculib3/src/timers.h **** 
  90:mculib3/src/timers.h **** 
  91:mculib3/src/timers.h **** template<Faster multiplier> // how many subticks in tick
  92:mculib3/src/timers.h **** void TickUpdater::subscribe_subtick (Subscriber& v)
  93:mculib3/src/timers.h **** {
  94:mculib3/src/timers.h ****     subtick.subscribe(v);
  95:mculib3/src/timers.h ****     subtick_qty = multiplier;
  96:mculib3/src/timers.h ****     REF(SysTick).initInterrupt<1000_us/multiplier>();
  97:mculib3/src/timers.h **** }
  98:mculib3/src/timers.h **** 
  99:mculib3/src/timers.h **** 
 100:mculib3/src/timers.h **** 
 101:mculib3/src/timers.h **** template<class Function>
 102:mculib3/src/timers.h **** inline void every_qty_cnt_call(size_t& cnt, size_t qty, Function call)
 103:mculib3/src/timers.h **** {
 104:mculib3/src/timers.h ****     if (not(cnt++ % qty))
 105:mculib3/src/timers.h ****         call();
 106:mculib3/src/timers.h **** }
 107:mculib3/src/timers.h **** 
 108:mculib3/src/timers.h **** 
 109:mculib3/src/timers.h **** 
 110:mculib3/src/timers.h **** void TickUpdater::interrupt()
 111:mculib3/src/timers.h **** {
 366              		.loc 8 111 1 is_stmt 1 view -0
 367              		.cfi_startproc
 368              		@ args = 0, pretend = 0, frame = 0
 369              		@ frame_needed = 0, uses_anonymous_args = 0
 112:mculib3/src/timers.h ****     subtick.notify();
 370              		.loc 8 112 5 view .LVU77
 111:mculib3/src/timers.h ****     subtick.notify();
 371              		.loc 8 111 1 is_stmt 0 view .LVU78
 372 0000 10B5     		push	{r4, lr}
 373              	.LCFI2:
 374              		.cfi_def_cfa_offset 8
 375              		.cfi_offset 4, -8
 376              		.cfi_offset 14, -4
 111:mculib3/src/timers.h ****     subtick.notify();
 377              		.loc 8 111 1 view .LVU79
ARM GAS  /tmp/cc5K8h45.s 			page 28


 378 0002 0400     		movs	r4, r0
 379              		.loc 8 112 19 view .LVU80
 380 0004 0830     		adds	r0, r0, #8
 381              	.LVL24:
 382              		.loc 8 112 19 view .LVU81
 383 0006 FFF7FEFF 		bl	_ZN9Publisher6notifyEv
 384              	.LVL25:
 113:mculib3/src/timers.h ****     every_qty_cnt_call (subtick_cnt, subtick_qty, [this]{
 385              		.loc 8 113 5 is_stmt 1 view .LVU82
 386              	.LBB1117:
 387              	.LBI1117:
 102:mculib3/src/timers.h **** {
 388              		.loc 8 102 13 view .LVU83
 389              	.LBB1118:
 104:mculib3/src/timers.h ****         call();
 390              		.loc 8 104 19 is_stmt 0 view .LVU84
 391 000a 2069     		ldr	r0, [r4, #16]
 392 000c 6169     		ldr	r1, [r4, #20]
 393 000e 431C     		adds	r3, r0, #1
 394 0010 2361     		str	r3, [r4, #16]
 395 0012 FFF7FEFF 		bl	__aeabi_uidivmod
 396              	.LVL26:
 104:mculib3/src/timers.h ****         call();
 397              		.loc 8 104 5 view .LVU85
 398 0016 0029     		cmp	r1, #0
 399 0018 02D1     		bne	.L16
 400              	.LBB1119:
 401              	.LBI1119:
 402              		.loc 8 113 51 is_stmt 1 view .LVU86
 403              	.LVL27:
 404              	.LBB1120:
 114:mculib3/src/timers.h ****         notify();
 405              		.loc 8 114 9 view .LVU87
 406              		.loc 8 114 15 is_stmt 0 view .LVU88
 407 001a 2000     		movs	r0, r4
 408 001c FFF7FEFF 		bl	_ZN9Publisher6notifyEv
 409              	.LVL28:
 410              	.L16:
 411              		.loc 8 114 15 view .LVU89
 412              	.LBE1120:
 413              	.LBE1119:
 414              	.LBE1118:
 415              	.LBE1117:
 115:mculib3/src/timers.h ****     });
 116:mculib3/src/timers.h **** }
 416              		.loc 8 116 1 view .LVU90
 417              		@ sp needed
 418              	.LVL29:
 419              		.loc 8 116 1 view .LVU91
 420 0020 10BD     		pop	{r4, pc}
 421              		.cfi_endproc
 422              	.LFE3607:
 424              		.section	.text.SysTick_Handler,"ax",%progbits
 425              		.align	1
 426              		.global	SysTick_Handler
 427              		.syntax unified
 428              		.code	16
ARM GAS  /tmp/cc5K8h45.s 			page 29


 429              		.thumb_func
 430              		.fpu softvfp
 432              	SysTick_Handler:
 433              	.LFB3588:
  38:mculib3/src/timers.h ****     tickUpdater.interrupt();
 434              		.loc 8 38 1 is_stmt 1 view -0
 435              		.cfi_startproc
 436              		@ args = 0, pretend = 0, frame = 0
 437              		@ frame_needed = 0, uses_anonymous_args = 0
  39:mculib3/src/timers.h **** }
 438              		.loc 8 39 5 view .LVU93
  38:mculib3/src/timers.h ****     tickUpdater.interrupt();
 439              		.loc 8 38 1 is_stmt 0 view .LVU94
 440 0000 10B5     		push	{r4, lr}
 441              	.LCFI3:
 442              		.cfi_def_cfa_offset 8
 443              		.cfi_offset 4, -8
 444              		.cfi_offset 14, -4
  39:mculib3/src/timers.h **** }
 445              		.loc 8 39 26 view .LVU95
 446 0002 0248     		ldr	r0, .L19
 447 0004 FFF7FEFF 		bl	_ZN11TickUpdater9interruptEv
 448              	.LVL30:
  40:mculib3/src/timers.h **** 
 449              		.loc 8 40 1 view .LVU96
 450              		@ sp needed
 451 0008 10BD     		pop	{r4, pc}
 452              	.L20:
 453 000a C046     		.align	2
 454              	.L19:
 455 000c 00000000 		.word	.LANCHOR0
 456              		.cfi_endproc
 457              	.LFE3588:
 459              		.section	.text._ZN5Timer5eventEv,"ax",%progbits
 460              		.align	1
 461              		.global	_ZN5Timer5eventEv
 462              		.syntax unified
 463              		.code	16
 464              		.thumb_func
 465              		.fpu softvfp
 467              	_ZN5Timer5eventEv:
 468              	.LVL31:
 469              	.LFB3610:
 117:mculib3/src/timers.h **** 
 118:mculib3/src/timers.h **** 
 119:mculib3/src/timers.h **** 
 120:mculib3/src/timers.h **** void Timer::start (uint32_t ms)
 121:mculib3/src/timers.h **** {
 122:mculib3/src/timers.h ****     timeSet = ms;
 123:mculib3/src/timers.h ****     tick_subscribe();
 124:mculib3/src/timers.h **** }
 125:mculib3/src/timers.h **** 
 126:mculib3/src/timers.h **** 
 127:mculib3/src/timers.h **** 
 128:mculib3/src/timers.h **** bool Timer::event()
 129:mculib3/src/timers.h **** {
 470              		.loc 8 129 1 is_stmt 1 view -0
ARM GAS  /tmp/cc5K8h45.s 			page 30


 471              		.cfi_startproc
 472              		@ args = 0, pretend = 0, frame = 0
 473              		@ frame_needed = 0, uses_anonymous_args = 0
 474              		@ link register save eliminated.
 130:mculib3/src/timers.h ****     if (timePassed_ >= timeSet) {
 475              		.loc 8 130 5 view .LVU98
 476              		.loc 8 130 9 is_stmt 0 view .LVU99
 477 0000 4169     		ldr	r1, [r0, #20]
 478              		.loc 8 130 24 view .LVU100
 479 0002 0269     		ldr	r2, [r0, #16]
 129:mculib3/src/timers.h ****     if (timePassed_ >= timeSet) {
 480              		.loc 8 129 1 view .LVU101
 481 0004 0300     		movs	r3, r0
 482 0006 0020     		movs	r0, #0
 483              	.LVL32:
 484              		.loc 8 130 5 view .LVU102
 485 0008 9142     		cmp	r1, r2
 486 000a 01D3     		bcc	.L22
 131:mculib3/src/timers.h ****         timePassed_ = 0;
 487              		.loc 8 131 9 is_stmt 1 view .LVU103
 488              		.loc 8 131 21 is_stmt 0 view .LVU104
 489 000c 5861     		str	r0, [r3, #20]
 132:mculib3/src/timers.h ****         return (true);
 490              		.loc 8 132 9 is_stmt 1 view .LVU105
 491              		.loc 8 132 21 is_stmt 0 view .LVU106
 492 000e 0130     		adds	r0, r0, #1
 493              	.L22:
 133:mculib3/src/timers.h ****     } else {
 134:mculib3/src/timers.h ****         return (false);
 135:mculib3/src/timers.h ****     }
 136:mculib3/src/timers.h **** }
 494              		.loc 8 136 1 view .LVU107
 495              		@ sp needed
 496 0010 7047     		bx	lr
 497              		.cfi_endproc
 498              	.LFE3610:
 500              		.section	.text._ZN5Timer4doneEv,"ax",%progbits
 501              		.align	1
 502              		.global	_ZN5Timer4doneEv
 503              		.syntax unified
 504              		.code	16
 505              		.thumb_func
 506              		.fpu softvfp
 508              	_ZN5Timer4doneEv:
 509              	.LVL33:
 510              	.LFB3613:
 137:mculib3/src/timers.h **** 
 138:mculib3/src/timers.h **** 
 139:mculib3/src/timers.h **** 
 140:mculib3/src/timers.h **** template<class Functor>
 141:mculib3/src/timers.h **** void Timer::event (Functor functor)
 142:mculib3/src/timers.h **** {
 143:mculib3/src/timers.h ****     if (timePassed_ >= timeSet) {
 144:mculib3/src/timers.h ****         timePassed_ = 0;
 145:mculib3/src/timers.h ****         functor();
 146:mculib3/src/timers.h ****     }
 147:mculib3/src/timers.h **** }
ARM GAS  /tmp/cc5K8h45.s 			page 31


 148:mculib3/src/timers.h **** 
 149:mculib3/src/timers.h **** 
 150:mculib3/src/timers.h **** 
 151:mculib3/src/timers.h **** void Timer::stop()
 152:mculib3/src/timers.h **** {
 153:mculib3/src/timers.h ****     timePassed_ = 0;
 154:mculib3/src/timers.h ****     tick_unsubscribe();
 155:mculib3/src/timers.h **** }
 156:mculib3/src/timers.h **** 
 157:mculib3/src/timers.h **** 
 158:mculib3/src/timers.h **** 
 159:mculib3/src/timers.h **** bool     Timer::done()       { return timePassed_ >= timeSet; }
 511              		.loc 8 159 30 is_stmt 1 view -0
 512              		.cfi_startproc
 513              		@ args = 0, pretend = 0, frame = 0
 514              		@ frame_needed = 0, uses_anonymous_args = 0
 515              		@ link register save eliminated.
 516              		.loc 8 159 32 view .LVU109
 517              		.loc 8 159 39 is_stmt 0 view .LVU110
 518 0000 4269     		ldr	r2, [r0, #20]
 519              		.loc 8 159 54 view .LVU111
 520 0002 0369     		ldr	r3, [r0, #16]
 521 0004 0020     		movs	r0, #0
 522              	.LVL34:
 523              		.loc 8 159 54 view .LVU112
 524 0006 9A42     		cmp	r2, r3
 525 0008 4041     		adcs	r0, r0, r0
 526              		.loc 8 159 63 view .LVU113
 527              		@ sp needed
 528              		.loc 8 159 54 view .LVU114
 529 000a C0B2     		uxtb	r0, r0
 530              		.loc 8 159 63 view .LVU115
 531 000c 7047     		bx	lr
 532              		.cfi_endproc
 533              	.LFE3613:
 535              		.section	.text._ZN5Timer7isCountEv,"ax",%progbits
 536              		.align	1
 537              		.global	_ZN5Timer7isCountEv
 538              		.syntax unified
 539              		.code	16
 540              		.thumb_func
 541              		.fpu softvfp
 543              	_ZN5Timer7isCountEv:
 544              	.LVL35:
 545              	.LFB3616:
 160:mculib3/src/timers.h **** void     Timer::pause()      { tick_unsubscribe(); }
 161:mculib3/src/timers.h **** void     Timer::start()      { tick_subscribe();  }
 162:mculib3/src/timers.h **** bool     Timer::isCount()    { return subscribed; }
 546              		.loc 8 162 30 is_stmt 1 view -0
 547              		.cfi_startproc
 548              		@ args = 0, pretend = 0, frame = 0
 549              		@ frame_needed = 0, uses_anonymous_args = 0
 550              		@ link register save eliminated.
 551              		.loc 8 162 32 view .LVU117
 552              		.loc 8 162 39 is_stmt 0 view .LVU118
 553 0000 007B     		ldrb	r0, [r0, #12]
 554              	.LVL36:
ARM GAS  /tmp/cc5K8h45.s 			page 32


 555              		.loc 8 162 51 view .LVU119
 556              		@ sp needed
 557 0002 7047     		bx	lr
 558              		.cfi_endproc
 559              	.LFE3616:
 561              		.section	.text._ZN5Timer10timePassedEv,"ax",%progbits
 562              		.align	1
 563              		.global	_ZN5Timer10timePassedEv
 564              		.syntax unified
 565              		.code	16
 566              		.thumb_func
 567              		.fpu softvfp
 569              	_ZN5Timer10timePassedEv:
 570              	.LVL37:
 571              	.LFB3617:
 163:mculib3/src/timers.h **** uint32_t Timer::timePassed() { return timePassed_; }
 572              		.loc 8 163 30 is_stmt 1 view -0
 573              		.cfi_startproc
 574              		@ args = 0, pretend = 0, frame = 0
 575              		@ frame_needed = 0, uses_anonymous_args = 0
 576              		@ link register save eliminated.
 577              		.loc 8 163 32 view .LVU121
 578              		.loc 8 163 39 is_stmt 0 view .LVU122
 579 0000 4069     		ldr	r0, [r0, #20]
 580              	.LVL38:
 581              		.loc 8 163 52 view .LVU123
 582              		@ sp needed
 583 0002 7047     		bx	lr
 584              		.cfi_endproc
 585              	.LFE3617:
 587              		.section	.text._ZN5Timer8timeLeftEv,"ax",%progbits
 588              		.align	1
 589              		.global	_ZN5Timer8timeLeftEv
 590              		.syntax unified
 591              		.code	16
 592              		.thumb_func
 593              		.fpu softvfp
 595              	_ZN5Timer8timeLeftEv:
 596              	.LVL39:
 597              	.LFB3618:
 164:mculib3/src/timers.h **** uint32_t Timer::timeLeft(  ) { return timeSet - timePassed_; }
 598              		.loc 8 164 30 is_stmt 1 view -0
 599              		.cfi_startproc
 600              		@ args = 0, pretend = 0, frame = 0
 601              		@ frame_needed = 0, uses_anonymous_args = 0
 602              		@ link register save eliminated.
 603              		.loc 8 164 32 view .LVU125
 604              		.loc 8 164 39 is_stmt 0 view .LVU126
 605 0000 0369     		ldr	r3, [r0, #16]
 606              		.loc 8 164 49 view .LVU127
 607 0002 4069     		ldr	r0, [r0, #20]
 608              	.LVL40:
 609              		.loc 8 164 62 view .LVU128
 610              		@ sp needed
 611              		.loc 8 164 49 view .LVU129
 612 0004 181A     		subs	r0, r3, r0
 613              		.loc 8 164 62 view .LVU130
ARM GAS  /tmp/cc5K8h45.s 			page 33


 614 0006 7047     		bx	lr
 615              		.cfi_endproc
 616              	.LFE3618:
 618              		.section	.text._ZN5Timer9isGreaterEm,"ax",%progbits
 619              		.align	1
 620              		.global	_ZN5Timer9isGreaterEm
 621              		.syntax unified
 622              		.code	16
 623              		.thumb_func
 624              		.fpu softvfp
 626              	_ZN5Timer9isGreaterEm:
 627              	.LVL41:
 628              	.LFB3619:
 165:mculib3/src/timers.h **** bool     Timer::isGreater (uint32_t val) { return timePassed_ > val; }
 629              		.loc 8 165 42 is_stmt 1 view -0
 630              		.cfi_startproc
 631              		@ args = 0, pretend = 0, frame = 0
 632              		@ frame_needed = 0, uses_anonymous_args = 0
 633              		@ link register save eliminated.
 634              		.loc 8 165 44 view .LVU132
 635              		.loc 8 165 51 is_stmt 0 view .LVU133
 636 0000 4069     		ldr	r0, [r0, #20]
 637              	.LVL42:
 638              		.loc 8 165 70 view .LVU134
 639              		@ sp needed
 640              		.loc 8 165 65 view .LVU135
 641 0002 8142     		cmp	r1, r0
 642 0004 8041     		sbcs	r0, r0, r0
 643 0006 4042     		rsbs	r0, r0, #0
 644              		.loc 8 165 70 view .LVU136
 645 0008 7047     		bx	lr
 646              		.cfi_endproc
 647              	.LFE3619:
 649              		.section	.text._ZN14TickSubscriber16tick_unsubscribeEv,"ax",%progbits
 650              		.align	1
 651              		.global	_ZN14TickSubscriber16tick_unsubscribeEv
 652              		.syntax unified
 653              		.code	16
 654              		.thumb_func
 655              		.fpu softvfp
 657              	_ZN14TickSubscriber16tick_unsubscribeEv:
 658              	.LVL43:
 659              	.LFB3620:
 166:mculib3/src/timers.h **** 
 167:mculib3/src/timers.h **** 
 168:mculib3/src/timers.h **** 
 169:mculib3/src/timers.h **** void TickSubscriber::tick_unsubscribe()
 170:mculib3/src/timers.h **** {
 660              		.loc 8 170 1 is_stmt 1 view -0
 661              		.cfi_startproc
 662              		@ args = 0, pretend = 0, frame = 0
 663              		@ frame_needed = 0, uses_anonymous_args = 0
 664              		@ link register save eliminated.
 171:mculib3/src/timers.h ****     if (subscribed) {
 665              		.loc 8 171 5 view .LVU138
 666 0000 037B     		ldrb	r3, [r0, #12]
 667 0002 002B     		cmp	r3, #0
ARM GAS  /tmp/cc5K8h45.s 			page 34


 668 0004 0DD0     		beq	.L29
 669              	.LVL44:
 670              	.LBB1127:
 671              	.LBI1127:
 169:mculib3/src/timers.h **** {
 672              		.loc 8 169 6 view .LVU139
 673              	.LBB1128:
 172:mculib3/src/timers.h ****         subscribed = false;
 674              		.loc 8 172 9 view .LVU140
 675              		.loc 8 172 20 is_stmt 0 view .LVU141
 676 0006 0023     		movs	r3, #0
 677              	.LBB1129:
 678              	.LBB1130:
 679              	.LBB1131:
  77:mculib3/src/list.h ****       v.prev->next = v.next;
 680              		.loc 7 77 10 view .LVU142
 681 0008 4268     		ldr	r2, [r0, #4]
 682              	.LBE1131:
 683              	.LBE1130:
 684              	.LBE1129:
 685              		.loc 8 172 20 view .LVU143
 686 000a 0373     		strb	r3, [r0, #12]
 173:mculib3/src/timers.h ****         tickUpdater.unsubscribe (*this);
 687              		.loc 8 173 9 is_stmt 1 view .LVU144
 688              	.LVL45:
 689              	.LBB1136:
 690              	.LBI1129:
  15:mculib3/src/subscriber.h ****     // ,     subscriber  *this
 691              		.loc 6 15 10 view .LVU145
 692              	.LBE1136:
 693              	.LBE1128:
 694              	.LBE1127:
  15:mculib3/src/subscriber.h ****     // ,     subscriber  *this
 695              		.loc 6 15 39 view .LVU146
 696              	.LBB1141:
 697              	.LBB1139:
 698              	.LBB1137:
 699              	.LBB1134:
 700              	.LBI1130:
  75:mculib3/src/list.h **** {
 701              		.loc 7 75 6 view .LVU147
 702 000c 8368     		ldr	r3, [r0, #8]
 703              	.LBB1132:
  77:mculib3/src/list.h ****       v.prev->next = v.next;
 704              		.loc 7 77 4 is_stmt 0 view .LVU148
 705 000e 002A     		cmp	r2, #0
 706 0010 0ED0     		beq	.L31
  77:mculib3/src/list.h ****       v.prev->next = v.next;
 707              		.loc 7 77 15 view .LVU149
 708 0012 002B     		cmp	r3, #0
 709 0014 08D0     		beq	.L32
  78:mculib3/src/list.h ****       v.next->prev = v.prev;
 710              		.loc 7 78 7 view .LVU150
 711 0016 9360     		str	r3, [r2, #8]
  79:mculib3/src/list.h ****    } else if (v.next) {             //  
 712              		.loc 7 79 7 view .LVU151
 713 0018 8368     		ldr	r3, [r0, #8]
ARM GAS  /tmp/cc5K8h45.s 			page 35


 714              	.L40:
  82:mculib3/src/list.h ****       if (not first) last = nullptr;
 715              		.loc 7 82 7 view .LVU152
 716 001a 5A60     		str	r2, [r3, #4]
 717              	.L33:
  92:mculib3/src/list.h ****    v.next = nullptr;
 718              		.loc 7 92 4 view .LVU153
 719 001c 0023     		movs	r3, #0
 720 001e 4360     		str	r3, [r0, #4]
  93:mculib3/src/list.h **** 
 721              		.loc 7 93 4 view .LVU154
 722 0020 8360     		str	r3, [r0, #8]
 723              	.LVL46:
 724              	.L29:
  93:mculib3/src/list.h **** 
 725              		.loc 7 93 4 view .LVU155
 726              	.LBE1132:
 727              	.LBE1134:
 728              	.LBE1137:
 729              	.LBE1139:
 730              	.LBE1141:
 174:mculib3/src/timers.h ****     }
 175:mculib3/src/timers.h **** }
 731              		.loc 8 175 1 view .LVU156
 732              		@ sp needed
 733 0022 7047     		bx	lr
 734              	.LVL47:
 735              	.L34:
 736              	.LBB1142:
 737              	.LBB1140:
 738              	.LBB1138:
 739              	.LBB1135:
 740              	.LBB1133:
  81:mculib3/src/list.h ****       first->prev = nullptr;
 741              		.loc 7 81 7 view .LVU157
 742 0024 0B60     		str	r3, [r1]
 743 0026 F8E7     		b	.L40
 744              	.L32:
  85:mculib3/src/list.h ****       last->next = nullptr;
 745              		.loc 7 85 7 view .LVU158
 746 0028 0449     		ldr	r1, .L41
  86:mculib3/src/list.h ****       if (not last) first = nullptr;
 747              		.loc 7 86 7 view .LVU159
 748 002a 9360     		str	r3, [r2, #8]
  85:mculib3/src/list.h ****       last->next = nullptr;
 749              		.loc 7 85 7 view .LVU160
 750 002c 4A60     		str	r2, [r1, #4]
 751 002e F5E7     		b	.L33
 752              	.L31:
 753 0030 0249     		ldr	r1, .L41
  80:mculib3/src/list.h ****       first = v.next;
 754              		.loc 7 80 11 view .LVU161
 755 0032 002B     		cmp	r3, #0
 756 0034 F6D1     		bne	.L34
  89:mculib3/src/list.h ****       last  = nullptr;
 757              		.loc 7 89 7 view .LVU162
 758 0036 0B60     		str	r3, [r1]
ARM GAS  /tmp/cc5K8h45.s 			page 36


  90:mculib3/src/list.h ****    }
 759              		.loc 7 90 7 view .LVU163
 760 0038 4B60     		str	r3, [r1, #4]
 761 003a EFE7     		b	.L33
 762              	.L42:
 763              		.align	2
 764              	.L41:
 765 003c 00000000 		.word	.LANCHOR0
 766              	.LBE1133:
 767              	.LBE1135:
 768              	.LBE1138:
 769              	.LBE1140:
 770              	.LBE1142:
 771              		.cfi_endproc
 772              	.LFE3620:
 774              		.section	.text._ZN5Timer4stopEv,"ax",%progbits
 775              		.align	1
 776              		.global	_ZN5Timer4stopEv
 777              		.syntax unified
 778              		.code	16
 779              		.thumb_func
 780              		.fpu softvfp
 782              	_ZN5Timer4stopEv:
 783              	.LVL48:
 784              	.LFB3612:
 152:mculib3/src/timers.h ****     timePassed_ = 0;
 785              		.loc 8 152 1 is_stmt 1 view -0
 786              		.cfi_startproc
 787              		@ args = 0, pretend = 0, frame = 0
 788              		@ frame_needed = 0, uses_anonymous_args = 0
 153:mculib3/src/timers.h ****     tick_unsubscribe();
 789              		.loc 8 153 5 view .LVU165
 153:mculib3/src/timers.h ****     tick_unsubscribe();
 790              		.loc 8 153 17 is_stmt 0 view .LVU166
 791 0000 0023     		movs	r3, #0
 152:mculib3/src/timers.h ****     timePassed_ = 0;
 792              		.loc 8 152 1 view .LVU167
 793 0002 10B5     		push	{r4, lr}
 794              	.LCFI4:
 795              		.cfi_def_cfa_offset 8
 796              		.cfi_offset 4, -8
 797              		.cfi_offset 14, -4
 153:mculib3/src/timers.h ****     tick_unsubscribe();
 798              		.loc 8 153 17 view .LVU168
 799 0004 4361     		str	r3, [r0, #20]
 154:mculib3/src/timers.h **** }
 800              		.loc 8 154 5 is_stmt 1 view .LVU169
 154:mculib3/src/timers.h **** }
 801              		.loc 8 154 21 is_stmt 0 view .LVU170
 802 0006 FFF7FEFF 		bl	_ZN14TickSubscriber16tick_unsubscribeEv
 803              	.LVL49:
 155:mculib3/src/timers.h **** 
 804              		.loc 8 155 1 view .LVU171
 805              		@ sp needed
 806 000a 10BD     		pop	{r4, pc}
 807              		.cfi_endproc
 808              	.LFE3612:
ARM GAS  /tmp/cc5K8h45.s 			page 37


 810              		.section	.text._ZN5Timer5pauseEv,"ax",%progbits
 811              		.align	1
 812              		.global	_ZN5Timer5pauseEv
 813              		.syntax unified
 814              		.code	16
 815              		.thumb_func
 816              		.fpu softvfp
 818              	_ZN5Timer5pauseEv:
 819              	.LVL50:
 820              	.LFB3614:
 160:mculib3/src/timers.h **** void     Timer::start()      { tick_subscribe();  }
 821              		.loc 8 160 30 is_stmt 1 view -0
 822              		.cfi_startproc
 823              		@ args = 0, pretend = 0, frame = 0
 824              		@ frame_needed = 0, uses_anonymous_args = 0
 160:mculib3/src/timers.h **** void     Timer::start()      { tick_subscribe();  }
 825              		.loc 8 160 32 view .LVU173
 160:mculib3/src/timers.h **** void     Timer::start()      { tick_subscribe();  }
 826              		.loc 8 160 30 is_stmt 0 view .LVU174
 827 0000 10B5     		push	{r4, lr}
 828              	.LCFI5:
 829              		.cfi_def_cfa_offset 8
 830              		.cfi_offset 4, -8
 831              		.cfi_offset 14, -4
 160:mculib3/src/timers.h **** void     Timer::start()      { tick_subscribe();  }
 832              		.loc 8 160 48 view .LVU175
 833 0002 FFF7FEFF 		bl	_ZN14TickSubscriber16tick_unsubscribeEv
 834              	.LVL51:
 160:mculib3/src/timers.h **** void     Timer::start()      { tick_subscribe();  }
 835              		.loc 8 160 52 view .LVU176
 836              		@ sp needed
 837 0006 10BD     		pop	{r4, pc}
 838              		.cfi_endproc
 839              	.LFE3614:
 841              		.section	.text._ZN14TickSubscriber14tick_subscribeEv,"ax",%progbits
 842              		.align	1
 843              		.global	_ZN14TickSubscriber14tick_subscribeEv
 844              		.syntax unified
 845              		.code	16
 846              		.thumb_func
 847              		.fpu softvfp
 849              	_ZN14TickSubscriber14tick_subscribeEv:
 850              	.LVL52:
 851              	.LFB3621:
 176:mculib3/src/timers.h **** 
 177:mculib3/src/timers.h **** 
 178:mculib3/src/timers.h **** 
 179:mculib3/src/timers.h **** void TickSubscriber::tick_subscribe()
 180:mculib3/src/timers.h **** {
 852              		.loc 8 180 1 is_stmt 1 view -0
 853              		.cfi_startproc
 854              		@ args = 0, pretend = 0, frame = 0
 855              		@ frame_needed = 0, uses_anonymous_args = 0
 856              		@ link register save eliminated.
 181:mculib3/src/timers.h ****     if (not subscribed) {
 857              		.loc 8 181 5 view .LVU178
 858 0000 037B     		ldrb	r3, [r0, #12]
ARM GAS  /tmp/cc5K8h45.s 			page 38


 859 0002 002B     		cmp	r3, #0
 860 0004 0CD1     		bne	.L45
 861              	.LVL53:
 862              	.LBB1149:
 863              	.LBI1149:
 179:mculib3/src/timers.h **** {
 864              		.loc 8 179 6 view .LVU179
 865              	.LBB1150:
 182:mculib3/src/timers.h ****         subscribed = true;
 866              		.loc 8 182 9 view .LVU180
 867              		.loc 8 182 20 is_stmt 0 view .LVU181
 868 0006 0133     		adds	r3, r3, #1
 869 0008 0373     		strb	r3, [r0, #12]
 183:mculib3/src/timers.h ****         tickUpdater.subscribe (*this);
 870              		.loc 8 183 9 is_stmt 1 view .LVU182
 871              	.LVL54:
 872              	.LBB1151:
 873              	.LBI1151:
  14:mculib3/src/subscriber.h ****     void unsubscribe(Subscriber& v) { remove(v);    }
 874              		.loc 6 14 10 view .LVU183
 875              	.LBE1151:
 876              	.LBE1150:
 877              	.LBE1149:
  14:mculib3/src/subscriber.h ****     void unsubscribe(Subscriber& v) { remove(v);    }
 878              		.loc 6 14 39 view .LVU184
 879              	.LBB1156:
 880              	.LBB1155:
 881              	.LBB1154:
 882              	.LBB1152:
 883              	.LBI1152:
  51:mculib3/src/list.h **** {
 884              		.loc 7 51 6 view .LVU185
 885              	.LBB1153:
  53:mculib3/src/list.h ****    if (last)
 886              		.loc 7 53 13 is_stmt 0 view .LVU186
 887 000a 064B     		ldr	r3, .L53
 888 000c 5A68     		ldr	r2, [r3, #4]
  53:mculib3/src/list.h ****    if (last)
 889              		.loc 7 53 4 view .LVU187
 890 000e 4260     		str	r2, [r0, #4]
  54:mculib3/src/list.h ****       last->next = &v;
 891              		.loc 7 54 4 view .LVU188
 892 0010 002A     		cmp	r2, #0
 893 0012 00D0     		beq	.L48
  55:mculib3/src/list.h ****    last = &v;
 894              		.loc 7 55 7 view .LVU189
 895 0014 9060     		str	r0, [r2, #8]
 896              	.L48:
  57:mculib3/src/list.h ****       first = &v;
 897              		.loc 7 57 4 view .LVU190
 898 0016 1A68     		ldr	r2, [r3]
  56:mculib3/src/list.h ****    if (not first)
 899              		.loc 7 56 4 view .LVU191
 900 0018 5860     		str	r0, [r3, #4]
  57:mculib3/src/list.h ****       first = &v;
 901              		.loc 7 57 4 view .LVU192
 902 001a 002A     		cmp	r2, #0
ARM GAS  /tmp/cc5K8h45.s 			page 39


 903 001c 00D1     		bne	.L45
  58:mculib3/src/list.h **** }
 904              		.loc 7 58 7 view .LVU193
 905 001e 1860     		str	r0, [r3]
 906              	.LVL55:
 907              	.L45:
  58:mculib3/src/list.h **** }
 908              		.loc 7 58 7 view .LVU194
 909              	.LBE1153:
 910              	.LBE1152:
 911              	.LBE1154:
 912              	.LBE1155:
 913              	.LBE1156:
 184:mculib3/src/timers.h ****     }
 185:mculib3/src/timers.h **** }
 914              		.loc 8 185 1 view .LVU195
 915              		@ sp needed
 916 0020 7047     		bx	lr
 917              	.L54:
 918 0022 C046     		.align	2
 919              	.L53:
 920 0024 00000000 		.word	.LANCHOR0
 921              		.cfi_endproc
 922              	.LFE3621:
 924              		.section	.text._ZN5Timer5startEm,"ax",%progbits
 925              		.align	1
 926              		.global	_ZN5Timer5startEm
 927              		.syntax unified
 928              		.code	16
 929              		.thumb_func
 930              		.fpu softvfp
 932              	_ZN5Timer5startEm:
 933              	.LVL56:
 934              	.LFB3609:
 121:mculib3/src/timers.h ****     timeSet = ms;
 935              		.loc 8 121 1 is_stmt 1 view -0
 936              		.cfi_startproc
 937              		@ args = 0, pretend = 0, frame = 0
 938              		@ frame_needed = 0, uses_anonymous_args = 0
 122:mculib3/src/timers.h ****     tick_subscribe();
 939              		.loc 8 122 5 view .LVU197
 121:mculib3/src/timers.h ****     timeSet = ms;
 940              		.loc 8 121 1 is_stmt 0 view .LVU198
 941 0000 10B5     		push	{r4, lr}
 942              	.LCFI6:
 943              		.cfi_def_cfa_offset 8
 944              		.cfi_offset 4, -8
 945              		.cfi_offset 14, -4
 122:mculib3/src/timers.h ****     tick_subscribe();
 946              		.loc 8 122 13 view .LVU199
 947 0002 0161     		str	r1, [r0, #16]
 123:mculib3/src/timers.h **** }
 948              		.loc 8 123 5 is_stmt 1 view .LVU200
 123:mculib3/src/timers.h **** }
 949              		.loc 8 123 19 is_stmt 0 view .LVU201
 950 0004 FFF7FEFF 		bl	_ZN14TickSubscriber14tick_subscribeEv
 951              	.LVL57:
ARM GAS  /tmp/cc5K8h45.s 			page 40


 124:mculib3/src/timers.h **** 
 952              		.loc 8 124 1 view .LVU202
 953              		@ sp needed
 954 0008 10BD     		pop	{r4, pc}
 955              		.cfi_endproc
 956              	.LFE3609:
 958              		.section	.text._ZN5Timer5startEv,"ax",%progbits
 959              		.align	1
 960              		.global	_ZN5Timer5startEv
 961              		.syntax unified
 962              		.code	16
 963              		.thumb_func
 964              		.fpu softvfp
 966              	_ZN5Timer5startEv:
 967              	.LVL58:
 968              	.LFB3615:
 161:mculib3/src/timers.h **** bool     Timer::isCount()    { return subscribed; }
 969              		.loc 8 161 30 is_stmt 1 view -0
 970              		.cfi_startproc
 971              		@ args = 0, pretend = 0, frame = 0
 972              		@ frame_needed = 0, uses_anonymous_args = 0
 161:mculib3/src/timers.h **** bool     Timer::isCount()    { return subscribed; }
 973              		.loc 8 161 32 view .LVU204
 161:mculib3/src/timers.h **** bool     Timer::isCount()    { return subscribed; }
 974              		.loc 8 161 30 is_stmt 0 view .LVU205
 975 0000 10B5     		push	{r4, lr}
 976              	.LCFI7:
 977              		.cfi_def_cfa_offset 8
 978              		.cfi_offset 4, -8
 979              		.cfi_offset 14, -4
 161:mculib3/src/timers.h **** bool     Timer::isCount()    { return subscribed; }
 980              		.loc 8 161 46 view .LVU206
 981 0002 FFF7FEFF 		bl	_ZN14TickSubscriber14tick_subscribeEv
 982              	.LVL59:
 161:mculib3/src/timers.h **** bool     Timer::isCount()    { return subscribed; }
 983              		.loc 8 161 51 view .LVU207
 984              		@ sp needed
 985 0006 10BD     		pop	{r4, pc}
 986              		.cfi_endproc
 987              	.LFE3615:
 989              		.section	.text._ZN12Modbus_slaveI7In_regs8Out_regsLj0EE14uart_interrupt9interruptEv,"axG",%progbit
 990              		.align	1
 991              		.weak	_ZN12Modbus_slaveI7In_regs8Out_regsLj0EE14uart_interrupt9interruptEv
 992              		.syntax unified
 993              		.code	16
 994              		.thumb_func
 995              		.fpu softvfp
 997              	_ZN12Modbus_slaveI7In_regs8Out_regsLj0EE14uart_interrupt9interruptEv:
 998              	.LVL60:
 999              	.LFB4701:
  68:mculib3/src/modbus_slave.h **** 
  69:mculib3/src/modbus_slave.h ****     using Parent = Modbus_slave;
  70:mculib3/src/modbus_slave.h **** 
  71:mculib3/src/modbus_slave.h ****     struct uart_interrupt : Interrupting
  72:mculib3/src/modbus_slave.h ****     {
  73:mculib3/src/modbus_slave.h ****         Parent& parent;
  74:mculib3/src/modbus_slave.h ****         uart_interrupt (Parent& parent) : parent(parent) {
ARM GAS  /tmp/cc5K8h45.s 			page 41


  75:mculib3/src/modbus_slave.h ****             parent.interrupt_usart.subscribe (this);
  76:mculib3/src/modbus_slave.h ****         }
  77:mculib3/src/modbus_slave.h ****         void interrupt() override {parent.uartInterrupt();} 
 1000              		.loc 2 77 14 is_stmt 1 view -0
 1001              		.cfi_startproc
 1002              		@ args = 0, pretend = 0, frame = 0
 1003              		@ frame_needed = 0, uses_anonymous_args = 0
 1004              		.loc 2 77 36 is_stmt 0 view .LVU209
 1005 0000 8068     		ldr	r0, [r0, #8]
 1006              	.LVL61:
 1007              	.LBB1171:
 1008              	.LBI1171:
  53:mculib3/src/modbus_slave.h ****     {
 1009              		.loc 2 53 10 is_stmt 1 view .LVU210
 1010              	.LBB1172:
 1011              	.LBB1173:
 1012              	.LBI1173:
 1013              		.file 9 "mculib3/src/uart.h"
   1:mculib3/src/uart.h **** #pragma once
   2:mculib3/src/uart.h **** 
   3:mculib3/src/uart.h **** #include <array>
   4:mculib3/src/uart.h **** #include <type_traits>
   5:mculib3/src/uart.h **** #include "periph_usart.h"
   6:mculib3/src/uart.h **** #include "periph_dma.h"
   7:mculib3/src/uart.h **** #include "pin.h"
   8:mculib3/src/uart.h **** #include "net_buffer.h"
   9:mculib3/src/uart.h **** #include "interrupt.h"
  10:mculib3/src/uart.h **** 
  11:mculib3/src/uart.h **** #if defined(USE_MOCK_DMA)
  12:mculib3/src/uart.h **** using DMA_stream = mock::DMA_stream;
  13:mculib3/src/uart.h **** using DMA = mock::DMA;
  14:mculib3/src/uart.h **** #else
  15:mculib3/src/uart.h **** using DMA_stream = mcu::DMA_stream;
  16:mculib3/src/uart.h **** using DMA = mcu::DMA;
  17:mculib3/src/uart.h **** #endif
  18:mculib3/src/uart.h **** 
  19:mculib3/src/uart.h **** #if defined(USE_MOCK_USART)
  20:mculib3/src/uart.h **** using USART = mock::USART;
  21:mculib3/src/uart.h **** #else
  22:mculib3/src/uart.h **** using USART = mcu::USART;
  23:mculib3/src/uart.h **** #endif
  24:mculib3/src/uart.h **** 
  25:mculib3/src/uart.h **** #if defined(USE_MOCK_NET_BUFFER)
  26:mculib3/src/uart.h **** #define NS mock
  27:mculib3/src/uart.h **** #else
  28:mculib3/src/uart.h **** #define NS
  29:mculib3/src/uart.h **** #endif
  30:mculib3/src/uart.h **** 
  31:mculib3/src/uart.h **** template <size_t buffer_size = 255>
  32:mculib3/src/uart.h **** class UART_sized
  33:mculib3/src/uart.h **** {
  34:mculib3/src/uart.h ****  public:
  35:mculib3/src/uart.h ****    using Parity = USART::Parity;
  36:mculib3/src/uart.h ****    using DataBits = USART::DataBits;
  37:mculib3/src/uart.h ****    using StopBits = USART::StopBits;
  38:mculib3/src/uart.h ****    using Baudrate = USART::Baudrate;
  39:mculib3/src/uart.h ****    struct Settings
ARM GAS  /tmp/cc5K8h45.s 			page 42


  40:mculib3/src/uart.h ****    {
  41:mculib3/src/uart.h ****       bool parity_enable :1;
  42:mculib3/src/uart.h ****       Parity parity      :1;
  43:mculib3/src/uart.h ****       DataBits data_bits :1;
  44:mculib3/src/uart.h ****       StopBits stop_bits :2;
  45:mculib3/src/uart.h ****       Baudrate baudrate  :3;
  46:mculib3/src/uart.h ****       uint16_t res       :8;
  47:mculib3/src/uart.h ****    };
  48:mculib3/src/uart.h **** 
  49:mculib3/src/uart.h ****    NS::Net_buffer<buffer_size> buffer;
  50:mculib3/src/uart.h **** 
  51:mculib3/src/uart.h ****    template <
  52:mculib3/src/uart.h ****        mcu::Periph usart, class TXpin, class RXpin, class RTSpin>
  53:mculib3/src/uart.h ****    static auto &make();
  54:mculib3/src/uart.h **** 
  55:mculib3/src/uart.h ****    void init(const Settings &);
  56:mculib3/src/uart.h ****    void transmit();
  57:mculib3/src/uart.h ****    void receive();
  58:mculib3/src/uart.h ****    bool is_tx_complete();
  59:mculib3/src/uart.h ****    bool is_rx_IDLE();
  60:mculib3/src/uart.h ****    bool is_receiving() { return buffer.size() < (buffer_size - RXstream.qty_transactions_left()); }
  61:mculib3/src/uart.h **** 
  62:mculib3/src/uart.h ****  protected:
  63:mculib3/src/uart.h ****    using DataSize = DMA_stream::DataSize;
  64:mculib3/src/uart.h ****    using Priority = DMA_stream::Priority;
  65:mculib3/src/uart.h ****    using Channel = DMA_stream::Channel;
  66:mculib3/src/uart.h ****    using Direction = DMA_stream::Direction;
  67:mculib3/src/uart.h **** 
  68:mculib3/src/uart.h ****    Pin &tx;
  69:mculib3/src/uart.h ****    Pin &rx;
  70:mculib3/src/uart.h ****    Pin &rts;
  71:mculib3/src/uart.h ****    DMA &dma;
  72:mculib3/src/uart.h ****    USART &usart;
  73:mculib3/src/uart.h ****    DMA_stream &TXstream;
  74:mculib3/src/uart.h ****    DMA_stream &RXstream;
  75:mculib3/src/uart.h ****    const mcu::Periph uart_periph;
  76:mculib3/src/uart.h ****    const Channel TX_channel;
  77:mculib3/src/uart.h ****    // const Channel RX_channel;
  78:mculib3/src/uart.h **** 
  79:mculib3/src/uart.h ****    UART_sized(
  80:mculib3/src/uart.h ****        Pin &tx, Pin &rx, Pin &rts, USART &usart, DMA &dma, DMA_stream &TXstream, 
  81:mculib3/src/uart.h ****        DMA_stream &RXstream, mcu::Periph uart_periph, Channel TX_channel) 
  82:mculib3/src/uart.h ****        : tx{tx}, rx{rx}, rts{rts}, dma{dma}, usart{usart}, TXstream{TXstream}, 
  83:mculib3/src/uart.h ****        RXstream{RXstream}, uart_periph{uart_periph}, TX_channel{TX_channel}
  84:mculib3/src/uart.h ****    { 
  85:mculib3/src/uart.h ****    
  86:mculib3/src/uart.h ****    }
  87:mculib3/src/uart.h **** 
  88:mculib3/src/uart.h ****    //  UART_sized(const UART_sized&) = delete;
  89:mculib3/src/uart.h ****    UART_sized &operator=(const UART_sized &) = delete;
  90:mculib3/src/uart.h **** };
  91:mculib3/src/uart.h **** 
  92:mculib3/src/uart.h **** using UART = UART_sized<>;
  93:mculib3/src/uart.h **** 
  94:mculib3/src/uart.h **** template <size_t buffer_size>
  95:mculib3/src/uart.h **** template <mcu::Periph uart_periph, class TXpin, class RXpin, class RTSpin>
  96:mculib3/src/uart.h **** auto &UART_sized<buffer_size>::make()
ARM GAS  /tmp/cc5K8h45.s 			page 43


  97:mculib3/src/uart.h **** {
  98:mculib3/src/uart.h ****    USART::pin_static_assert<uart_periph, TXpin, RXpin>();
  99:mculib3/src/uart.h **** 
 100:mculib3/src/uart.h ****    constexpr auto TX_stream = USART::default_stream<TXpin>();
 101:mculib3/src/uart.h ****    constexpr auto RX_stream = USART::default_stream<RXpin>();
 102:mculib3/src/uart.h ****    constexpr auto dma_periph = DMA_stream::dma_periph<TX_stream>();
 103:mculib3/src/uart.h ****    constexpr auto TXpin_mode = USART::pin_mode<TXpin>();
 104:mculib3/src/uart.h ****    constexpr auto RXpin_mode = USART::pin_mode<RXpin>();
 105:mculib3/src/uart.h **** 
 106:mculib3/src/uart.h ****    static UART_sized<buffer_size> uart{
 107:mculib3/src/uart.h ****        Pin::make<TXpin, TXpin_mode>(), 
 108:mculib3/src/uart.h ****        Pin::make<RXpin, RXpin_mode>(), 
 109:mculib3/src/uart.h ****        Pin::make<RTSpin, mcu::PinMode::Output>(), 
 110:mculib3/src/uart.h ****        mcu::make_reference<uart_periph>(), 
 111:mculib3/src/uart.h ****        mcu::make_reference<dma_periph>(), 
 112:mculib3/src/uart.h ****        mcu::make_reference<TX_stream>(), 
 113:mculib3/src/uart.h ****        mcu::make_reference<RX_stream>(), 
 114:mculib3/src/uart.h ****        uart_periph, 
 115:mculib3/src/uart.h ****        DMA_stream::channel<TX_stream>()};
 116:mculib3/src/uart.h **** 
 117:mculib3/src/uart.h ****    auto &rcc = REF(RCC);
 118:mculib3/src/uart.h ****    rcc.clock_enable<uart_periph>();
 119:mculib3/src/uart.h ****    uart.usart.tx_enable()
 120:mculib3/src/uart.h ****        .rx_enable()
 121:mculib3/src/uart.h ****        .DMA_tx_enable()
 122:mculib3/src/uart.h ****        .DMA_rx_enable();
 123:mculib3/src/uart.h ****    get_interrupt<uart_periph>().enable();
 124:mculib3/src/uart.h **** 
 125:mculib3/src/uart.h ****    rcc.clock_enable<dma_periph>();
 126:mculib3/src/uart.h ****    uart.TXstream.set(Direction::to_periph)
 127:mculib3/src/uart.h ****        .set_memory_adr(size_t(uart.buffer.begin()))
 128:mculib3/src/uart.h ****        .set_periph_adr(uart.usart.transmit_data_adr())
 129:mculib3/src/uart.h ****        .inc_memory()
 130:mculib3/src/uart.h ****        .size_memory(DataSize::byte8)
 131:mculib3/src/uart.h ****        .size_periph(DataSize::byte8)
 132:mculib3/src/uart.h ****        .enable_transfer_complete_interrupt();
 133:mculib3/src/uart.h ****    get_interrupt<TX_stream>().enable();
 134:mculib3/src/uart.h **** 
 135:mculib3/src/uart.h ****    uart.RXstream.set(Direction::to_memory)
 136:mculib3/src/uart.h ****        .set_memory_adr(size_t(uart.buffer.begin()))
 137:mculib3/src/uart.h ****        .set_periph_adr(uart.usart.receive_data_adr())
 138:mculib3/src/uart.h ****        .set_qty_transactions(buffer_size)
 139:mculib3/src/uart.h ****        .inc_memory()
 140:mculib3/src/uart.h ****        .size_memory(DataSize::byte8)
 141:mculib3/src/uart.h ****        .size_periph(DataSize::byte8)
 142:mculib3/src/uart.h ****        .circular_mode();
 143:mculib3/src/uart.h **** 
 144:mculib3/src/uart.h ****    #if defined(STM32F4) // or defined(STM32F1) FIX  STM32F1   set_channel
 145:mculib3/src/uart.h ****       uart.RXstream.set_channel(DMA_stream::select_channel<uart_periph>());
 146:mculib3/src/uart.h ****       uart.TXstream.set_channel(DMA_stream::select_channel<uart_periph>());
 147:mculib3/src/uart.h ****    #endif
 148:mculib3/src/uart.h ****    
 149:mculib3/src/uart.h ****    return uart;
 150:mculib3/src/uart.h **** }
 151:mculib3/src/uart.h **** 
 152:mculib3/src/uart.h **** template <size_t buffer_size>
 153:mculib3/src/uart.h **** void UART_sized<buffer_size>::init(const UART_sized<buffer_size>::Settings &set)
ARM GAS  /tmp/cc5K8h45.s 			page 44


 154:mculib3/src/uart.h **** {
 155:mculib3/src/uart.h ****    usart.set(set.baudrate, uart_periph)
 156:mculib3/src/uart.h ****        .set(set.parity)
 157:mculib3/src/uart.h ****        .set(set.data_bits)
 158:mculib3/src/uart.h ****        .set(set.stop_bits)
 159:mculib3/src/uart.h ****        .parity_enable(set.parity_enable)
 160:mculib3/src/uart.h ****        .enable();
 161:mculib3/src/uart.h **** }
 162:mculib3/src/uart.h **** 
 163:mculib3/src/uart.h **** template <size_t buffer_size>
 164:mculib3/src/uart.h **** void UART_sized<buffer_size>::transmit()
 165:mculib3/src/uart.h **** {
 166:mculib3/src/uart.h ****    rts = true;
 167:mculib3/src/uart.h ****    usart.enable_IDLE_interrupt (false);
 168:mculib3/src/uart.h ****    RXstream.disable();
 169:mculib3/src/uart.h ****    TXstream.disable();
 170:mculib3/src/uart.h ****    // +2     2  (  
 171:mculib3/src/uart.h ****    TXstream.set_qty_transactions(buffer.size() + 2);
 172:mculib3/src/uart.h ****    TXstream.enable();
 173:mculib3/src/uart.h **** }
 174:mculib3/src/uart.h **** 
 175:mculib3/src/uart.h **** template <size_t buffer_size>
 176:mculib3/src/uart.h **** void UART_sized<buffer_size>::receive()
 177:mculib3/src/uart.h **** {
 178:mculib3/src/uart.h ****    buffer.clear();
 179:mculib3/src/uart.h ****    rts = false;
 180:mculib3/src/uart.h ****    TXstream.disable();
 181:mculib3/src/uart.h ****    RXstream.disable()
 182:mculib3/src/uart.h ****        .set_qty_transactions(buffer_size);
 183:mculib3/src/uart.h ****    RXstream.enable();
 184:mculib3/src/uart.h ****    usart.enable_IDLE_interrupt();
 185:mculib3/src/uart.h **** }
 186:mculib3/src/uart.h **** 
 187:mculib3/src/uart.h **** template <size_t buffer_size>
 188:mculib3/src/uart.h **** bool UART_sized<buffer_size>::is_rx_IDLE()
 1014              		.loc 9 188 6 view .LVU211
 1015              	.LBE1173:
 1016              	.LBE1172:
 1017              	.LBE1171:
 1018              		.loc 2 77 14 is_stmt 0 view .LVU212
 1019 0002 10B5     		push	{r4, lr}
 1020              	.LCFI8:
 1021              		.cfi_def_cfa_offset 8
 1022              		.cfi_offset 4, -8
 1023              		.cfi_offset 14, -4
 1024              	.LBB1187:
 1025              	.LBB1186:
 1026              	.LBB1185:
 1027              	.LBB1174:
 189:mculib3/src/uart.h **** {
 190:mculib3/src/uart.h ****    auto res = usart.is_IDLE_interrupt();
 1028              		.loc 9 190 15 view .LVU213
 1029 0004 0369     		ldr	r3, [r0, #16]
 1030 0006 FC33     		adds	r3, r3, #252
 1031 0008 DA69     		ldr	r2, [r3, #28]
 1032              	.LVL62:
 1033              	.LBB1175:
ARM GAS  /tmp/cc5K8h45.s 			page 45


 1034              	.LBI1175:
 1035              		.file 10 "mculib3/src/periph/usart_f0.h"
   1:mculib3/src/periph/usart_f0.h **** #pragma once
   2:mculib3/src/periph/usart_f0.h **** 
   3:mculib3/src/periph/usart_f0.h **** #include <type_traits>
   4:mculib3/src/periph/usart_f0.h **** #include "bits_usart_f0.h"
   5:mculib3/src/periph/usart_f0.h **** #include "periph_rcc.h"
   6:mculib3/src/periph/usart_f0.h **** #include "pin.h"
   7:mculib3/src/periph/usart_f0.h **** #include "meta.h"
   8:mculib3/src/periph/usart_f0.h **** 
   9:mculib3/src/periph/usart_f0.h **** namespace mcu {
  10:mculib3/src/periph/usart_f0.h **** 
  11:mculib3/src/periph/usart_f0.h **** class USART {
  12:mculib3/src/periph/usart_f0.h ****    volatile USART_bits::CR1 CR1;  // Control register 1,                offset: 0x00 
  13:mculib3/src/periph/usart_f0.h ****    volatile USART_bits::CR2 CR2;  // Control register 2,                offset: 0x04 
  14:mculib3/src/periph/usart_f0.h ****    volatile USART_bits::CR3 CR3;  // Control register 3,                offset: 0x08
  15:mculib3/src/periph/usart_f0.h ****    volatile uint32_t        BRR;  // Baud rate register,                offset: 0x0C
  16:mculib3/src/periph/usart_f0.h ****    volatile uint32_t        GTPR; // Guard time and prescaler register, offset: 0x10
  17:mculib3/src/periph/usart_f0.h ****    volatile uint32_t        RTOR; // Receiver Time Out register,        offset: 0x14  
  18:mculib3/src/periph/usart_f0.h ****    volatile uint32_t        RQR;  // Request register,                  offset: 0x18
  19:mculib3/src/periph/usart_f0.h ****    volatile USART_bits::SR  ISR;  // Interrupt and status register,     offset: 0x1C
  20:mculib3/src/periph/usart_f0.h ****    volatile USART_bits::SR  ICR;  // Interrupt flag Clear register,     offset: 0x20
  21:mculib3/src/periph/usart_f0.h ****    volatile uint32_t        RDR;  // Receive Data register,             offset: 0x24
  22:mculib3/src/periph/usart_f0.h ****    volatile uint32_t        TDR;  // Transmit Data register,            offset: 0x28
  23:mculib3/src/periph/usart_f0.h **** 
  24:mculib3/src/periph/usart_f0.h **** public:
  25:mculib3/src/periph/usart_f0.h ****    using CMSIS_type     = USART_TypeDef;
  26:mculib3/src/periph/usart_f0.h ****    using Parity         = USART_bits::CR1::Parity;
  27:mculib3/src/periph/usart_f0.h ****    using DataBits       = USART_bits::CR1::DataBits;
  28:mculib3/src/periph/usart_f0.h ****    using StopBits       = USART_bits::CR2::StopBits;
  29:mculib3/src/periph/usart_f0.h **** 
  30:mculib3/src/periph/usart_f0.h ****    enum Baudrate {
  31:mculib3/src/periph/usart_f0.h ****       BR9600   = 0b000, // modbus time 4 ms
  32:mculib3/src/periph/usart_f0.h ****       BR14400  = 0b001, // modbus time 3 ms
  33:mculib3/src/periph/usart_f0.h ****       BR19200  = 0b010, // modbus time 2 ms
  34:mculib3/src/periph/usart_f0.h ****       BR28800  = 0b011, // modbus time 2 ms
  35:mculib3/src/periph/usart_f0.h ****       BR38400  = 0b100, // modbus time 2 ms
  36:mculib3/src/periph/usart_f0.h ****       BR57600  = 0b101, // modbus time 2 ms
  37:mculib3/src/periph/usart_f0.h ****       BR76800  = 0b110, // modbus time 2 ms
  38:mculib3/src/periph/usart_f0.h ****       BR115200 = 0b111  // modbus time 2 ms
  39:mculib3/src/periph/usart_f0.h ****    };
  40:mculib3/src/periph/usart_f0.h **** 
  41:mculib3/src/periph/usart_f0.h ****    auto& like_CMSIS() { return *reinterpret_cast<CMSIS_type*>(this); }
  42:mculib3/src/periph/usart_f0.h **** 
  43:mculib3/src/periph/usart_f0.h ****    USART& set (Parity         v)         {CR1.PS    = v; return *this;}
  44:mculib3/src/periph/usart_f0.h ****    USART& set (DataBits       v)         {CR1.M0    = v; return *this;}
  45:mculib3/src/periph/usart_f0.h ****    USART& set (StopBits       v)         {CR2.STOP  = v; return *this;}
  46:mculib3/src/periph/usart_f0.h ****    USART& set (Baudrate, Periph);
  47:mculib3/src/periph/usart_f0.h **** 
  48:mculib3/src/periph/usart_f0.h ****    USART& enable        (){CR1.UE   = true;  return *this;}
  49:mculib3/src/periph/usart_f0.h ****    USART& disable       (){CR1.UE   = false; return *this;}
  50:mculib3/src/periph/usart_f0.h ****    USART& rx_enable     (){CR1.RE   = true;  return *this;}
  51:mculib3/src/periph/usart_f0.h ****    USART& rx_disable    (){CR1.RE   = false; return *this;}
  52:mculib3/src/periph/usart_f0.h ****    USART& tx_enable     (){CR1.TE   = true;  return *this;}
  53:mculib3/src/periph/usart_f0.h ****    USART& tx_disable    (){CR1.TE   = false; return *this;}
  54:mculib3/src/periph/usart_f0.h ****    USART& rts_enable    (){CR3.RTSE = true;  return *this;}
  55:mculib3/src/periph/usart_f0.h ****    USART& rts_disable   (){CR3.RTSE = false; return *this;}
ARM GAS  /tmp/cc5K8h45.s 			page 46


  56:mculib3/src/periph/usart_f0.h ****    USART& DMA_tx_enable (){CR3.DMAT = true;  return *this;}
  57:mculib3/src/periph/usart_f0.h ****    USART& DMA_rx_enable (){CR3.DMAR = true;  return *this;}
  58:mculib3/src/periph/usart_f0.h ****    USART& parity_enable (){CR1.PCE  = true;  return *this;}
  59:mculib3/src/periph/usart_f0.h ****    USART& parity_disable(){CR1.PCE  = false; return *this;}
  60:mculib3/src/periph/usart_f0.h ****    USART& parity_enable (bool enable){enable ? parity_enable() : parity_disable(); return *this;}
  61:mculib3/src/periph/usart_f0.h **** 
  62:mculib3/src/periph/usart_f0.h ****    USART& enable_IDLE_interrupt (bool v = true) {CR1.IDLEIE = v;  return *this;}
  63:mculib3/src/periph/usart_f0.h ****    bool   is_IDLE_interrupt              (){return ISR.IDLE;}
 1036              		.loc 10 63 11 is_stmt 1 view .LVU214
 1037              	.LBB1176:
 1038              		.loc 10 63 45 view .LVU215
 1039              		.loc 10 63 56 is_stmt 0 view .LVU216
 1040 000a D269     		ldr	r2, [r2, #28]
 1041              	.LVL63:
 1042              		.loc 10 63 56 view .LVU217
 1043              	.LBE1176:
 1044              	.LBE1175:
 191:mculib3/src/uart.h ****    if (res)
 1045              		.loc 9 191 4 view .LVU218
 1046 000c D206     		lsls	r2, r2, #27
 1047 000e 0ED5     		bpl	.L57
 1048              	.LVL64:
 1049              	.LBB1177:
 1050              	.LBB1178:
 1051              		.file 11 "mculib3/src/net_buffer.h"
   1:mculib3/src/net_buffer.h **** #pragma once
   2:mculib3/src/net_buffer.h **** 
   3:mculib3/src/net_buffer.h **** #include <array>
   4:mculib3/src/net_buffer.h **** #include <type_traits>
   5:mculib3/src/net_buffer.h **** 
   6:mculib3/src/net_buffer.h **** struct Raw_data {
   7:mculib3/src/net_buffer.h ****     using value_type = uint8_t;
   8:mculib3/src/net_buffer.h ****     const uint8_t* pointer  {nullptr};
   9:mculib3/src/net_buffer.h ****     const unsigned int size_ {0};
  10:mculib3/src/net_buffer.h ****     constexpr Raw_data (const uint8_t* pointer, unsigned int size) : pointer{pointer}, size_{size} 
  11:mculib3/src/net_buffer.h ****     constexpr Raw_data() = default;
  12:mculib3/src/net_buffer.h ****     constexpr const size_t   size()  const { return size_; }
  13:mculib3/src/net_buffer.h ****     constexpr const uint8_t* begin() const { return pointer; }
  14:mculib3/src/net_buffer.h ****     constexpr const uint8_t* end()   const { return pointer + size_; }
  15:mculib3/src/net_buffer.h **** };
  16:mculib3/src/net_buffer.h **** 
  17:mculib3/src/net_buffer.h **** 
  18:mculib3/src/net_buffer.h **** template<size_t size_>
  19:mculib3/src/net_buffer.h **** class Net_buffer : public std::array<uint8_t,size_> {
  20:mculib3/src/net_buffer.h **** public:
  21:mculib3/src/net_buffer.h ****     void clear() { begin_i = 0; end_i = 0; }
  22:mculib3/src/net_buffer.h ****     auto begin() { return base().begin() + begin_i; }
  23:mculib3/src/net_buffer.h ****     auto end()   { return base().begin() + end_i; }
  24:mculib3/src/net_buffer.h ****     auto size()  { return end_i - begin_i; }
  25:mculib3/src/net_buffer.h ****     void set_size (size_t v) { begin_i = 0; end_i = std::min(v,size_); }
 1052              		.loc 11 25 32 view .LVU219
 1053 0010 0021     		movs	r1, #0
 1054              	.LBE1178:
 1055              	.LBE1177:
 192:mculib3/src/uart.h ****       buffer.set_size(buffer_size - RXstream.qty_transactions_left());
 1056              		.loc 9 192 7 view .LVU220
 1057 0012 FF24     		movs	r4, #255
ARM GAS  /tmp/cc5K8h45.s 			page 47


 1058              		.loc 9 192 37 view .LVU221
 1059 0014 5A6A     		ldr	r2, [r3, #36]
 1060              	.LVL65:
 1061              	.LBB1181:
 1062              	.LBI1181:
 1063              		.file 12 "mculib3/src/periph/dma_stream_f0_f1.h"
   1:mculib3/src/periph/dma_stream_f0_f1.h **** #pragma once
   2:mculib3/src/periph/dma_stream_f0_f1.h **** 
   3:mculib3/src/periph/dma_stream_f0_f1.h **** #include "bits_dma_stream_f0_f1.h"
   4:mculib3/src/periph/dma_stream_f0_f1.h **** #include "periph_dma.h"
   5:mculib3/src/periph/dma_stream_f0_f1.h **** 
   6:mculib3/src/periph/dma_stream_f0_f1.h **** namespace mcu {
   7:mculib3/src/periph/dma_stream_f0_f1.h **** 
   8:mculib3/src/periph/dma_stream_f0_f1.h **** class DMA_stream {
   9:mculib3/src/periph/dma_stream_f0_f1.h **** protected:
  10:mculib3/src/periph/dma_stream_f0_f1.h ****    volatile DMA_bits::CCR CCR;   // DMA channel x configuration register      offset: 0x08 + 0d20 
  11:mculib3/src/periph/dma_stream_f0_f1.h ****    volatile uint32_t      CNDTR; // DMA channel x number of data register     offset: 0x0C + 0d20 
  12:mculib3/src/periph/dma_stream_f0_f1.h ****    volatile uint32_t      CPAR;  // DMA channel x peripheral address register offset: 0x10 + 0d20 
  13:mculib3/src/periph/dma_stream_f0_f1.h ****    volatile uint32_t      CMAR;  // DMA channel x memory address register     offset: 0x14 + 0d20 
  14:mculib3/src/periph/dma_stream_f0_f1.h **** 
  15:mculib3/src/periph/dma_stream_f0_f1.h **** public:
  16:mculib3/src/periph/dma_stream_f0_f1.h ****    using CMSIS_type = DMA_Channel_TypeDef;
  17:mculib3/src/periph/dma_stream_f0_f1.h ****    using DataSize   = DMA_bits::CCR::DataSize;
  18:mculib3/src/periph/dma_stream_f0_f1.h ****    using Priority   = DMA_bits::CCR::Priority;
  19:mculib3/src/periph/dma_stream_f0_f1.h ****    using Direction  = DMA_bits::CCR::Direction;
  20:mculib3/src/periph/dma_stream_f0_f1.h ****    using Channel    = DMA::Channel;
  21:mculib3/src/periph/dma_stream_f0_f1.h **** 
  22:mculib3/src/periph/dma_stream_f0_f1.h ****    auto& like_CMSIS() { return *reinterpret_cast<CMSIS_type*>(this); }
  23:mculib3/src/periph/dma_stream_f0_f1.h **** 
  24:mculib3/src/periph/dma_stream_f0_f1.h ****    DMA_stream& enable       (){CCR.EN = true; while(not CCR.EN){} return *this;}
  25:mculib3/src/periph/dma_stream_f0_f1.h ****    DMA_stream& disable      (){CCR.EN = false;  return *this;}
  26:mculib3/src/periph/dma_stream_f0_f1.h ****    bool        is_disable   (){return (not CCR.EN);}
  27:mculib3/src/periph/dma_stream_f0_f1.h ****    DMA_stream& inc_memory   (){CCR.MINC = true; return *this;}
  28:mculib3/src/periph/dma_stream_f0_f1.h ****    DMA_stream& inc_periph   (){CCR.PINC = true; return *this;}
  29:mculib3/src/periph/dma_stream_f0_f1.h ****    DMA_stream& circular_mode(){CCR.CIRC = true; return *this;}
  30:mculib3/src/periph/dma_stream_f0_f1.h **** 
  31:mculib3/src/periph/dma_stream_f0_f1.h ****    DMA_stream& set_memory_adr      (uint32_t v){CMAR  = v; return *this;}
  32:mculib3/src/periph/dma_stream_f0_f1.h ****    DMA_stream& set_periph_adr      (uint32_t v){CPAR  = v; return *this;}
  33:mculib3/src/periph/dma_stream_f0_f1.h ****    DMA_stream& set_qty_transactions(uint16_t v){CNDTR = v; return *this;}
  34:mculib3/src/periph/dma_stream_f0_f1.h **** 
  35:mculib3/src/periph/dma_stream_f0_f1.h ****    DMA_stream& set       (Direction v) {CCR.DIR   = v; return *this;}
  36:mculib3/src/periph/dma_stream_f0_f1.h ****    DMA_stream& size_memory(DataSize v) {CCR.MSIZE = v; return *this;}
  37:mculib3/src/periph/dma_stream_f0_f1.h ****    DMA_stream& size_periph(DataSize v) {CCR.PSIZE = v; return *this;}
  38:mculib3/src/periph/dma_stream_f0_f1.h **** 
  39:mculib3/src/periph/dma_stream_f0_f1.h ****    DMA_stream& enable_transfer_complete_interrupt(){CCR.TCIE = true; return *this;}
  40:mculib3/src/periph/dma_stream_f0_f1.h **** 
  41:mculib3/src/periph/dma_stream_f0_f1.h ****    uint16_t qty_transactions_left(){return CNDTR;}
 1064              		.loc 12 41 13 is_stmt 1 view .LVU222
 1065              	.LBB1182:
 1066              		.loc 12 41 37 view .LVU223
 1067              		.loc 12 41 44 is_stmt 0 view .LVU224
 1068 0016 5268     		ldr	r2, [r2, #4]
 1069              	.LVL66:
 1070              		.loc 12 41 44 view .LVU225
 1071              	.LBE1182:
 1072              	.LBE1181:
 1073              	.LBB1183:
ARM GAS  /tmp/cc5K8h45.s 			page 48


 1074              	.LBB1179:
 1075              		.loc 11 25 32 view .LVU226
 1076 0018 5960     		str	r1, [r3, #4]
 1077 001a 92B2     		uxth	r2, r2
 1078              	.LVL67:
 1079              		.loc 11 25 32 view .LVU227
 1080              	.LBE1179:
 1081              	.LBI1177:
 1082              		.loc 11 25 10 is_stmt 1 view .LVU228
 1083              	.LBE1183:
 1084              		.loc 9 192 7 is_stmt 0 view .LVU229
 1085 001c A11A     		subs	r1, r4, r2
 1086              	.LVL68:
 1087              	.LBB1184:
 1088              	.LBB1180:
 1089              		.loc 11 25 45 view .LVU230
 1090 001e A142     		cmp	r1, r4
 1091 0020 00D9     		bls	.L60
 1092 0022 2100     		movs	r1, r4
 1093              	.LVL69:
 1094              	.L60:
 1095              		.loc 11 25 45 view .LVU231
 1096 0024 9960     		str	r1, [r3, #8]
 1097              	.LVL70:
 1098              		.loc 11 25 45 view .LVU232
 1099              	.LBE1180:
 1100              	.LBE1184:
 193:mculib3/src/uart.h ****    return res and buffer.size();
 1101              		.loc 9 193 15 view .LVU233
 1102 0026 FF2A     		cmp	r2, #255
 1103 0028 01D0     		beq	.L57
 1104              	.LVL71:
 1105              		.loc 9 193 15 view .LVU234
 1106              	.LBE1174:
 1107              	.LBE1185:
  56:mculib3/src/modbus_slave.h ****     }
 1108              		.loc 2 56 27 view .LVU235
 1109 002a FFF7FEFF 		bl	_ZN14TickSubscriber14tick_subscribeEv
 1110              	.LVL72:
 1111              	.L57:
  56:mculib3/src/modbus_slave.h ****     }
 1112              		.loc 2 56 27 view .LVU236
 1113              	.LBE1186:
 1114              	.LBE1187:
 1115              		.loc 2 77 59 view .LVU237
 1116              		@ sp needed
 1117 002e 10BD     		pop	{r4, pc}
 1118              		.cfi_endproc
 1119              	.LFE4701:
 1121              		.global	__aeabi_uidiv
 1122              		.global	__aeabi_idiv
 1123              		.section	.text._ZN3mcu5USART3setENS0_8BaudrateENS_6PeriphE,"ax",%progbits
 1124              		.align	1
 1125              		.global	_ZN3mcu5USART3setENS0_8BaudrateENS_6PeriphE
 1126              		.syntax unified
 1127              		.code	16
 1128              		.thumb_func
ARM GAS  /tmp/cc5K8h45.s 			page 49


 1129              		.fpu softvfp
 1131              	_ZN3mcu5USART3setENS0_8BaudrateENS_6PeriphE:
 1132              	.LVL73:
 1133              	.LFB3663:
  64:mculib3/src/periph/usart_f0.h ****    USART& enable_tx_complete_interrupt   (){CR1.TCIE   = true;  return *this;}
  65:mculib3/src/periph/usart_f0.h ****    USART& disable_tx_complete_interrupt  (){CR1.TCIE   = false; return *this;}
  66:mculib3/src/periph/usart_f0.h ****    bool   is_tx_complete                 (){return ISR.TC;}
  67:mculib3/src/periph/usart_f0.h ****    bool   is_tx_complete_interrupt_enable(){return CR1.TCIE;}
  68:mculib3/src/periph/usart_f0.h **** 
  69:mculib3/src/periph/usart_f0.h ****    
  70:mculib3/src/periph/usart_f0.h ****    USART& clear_interrupt_flags()
  71:mculib3/src/periph/usart_f0.h ****    {
  72:mculib3/src/periph/usart_f0.h ****       *reinterpret_cast<volatile uint32_t*>(&ICR) = 0xFFFFFFFF;
  73:mculib3/src/periph/usart_f0.h ****       return *this;
  74:mculib3/src/periph/usart_f0.h ****    }
  75:mculib3/src/periph/usart_f0.h **** 
  76:mculib3/src/periph/usart_f0.h ****    size_t receive_data_adr () {return reinterpret_cast<size_t>(&RDR);}
  77:mculib3/src/periph/usart_f0.h ****    size_t transmit_data_adr() {return reinterpret_cast<size_t>(&TDR);}
  78:mculib3/src/periph/usart_f0.h **** 
  79:mculib3/src/periph/usart_f0.h ****    
  80:mculib3/src/periph/usart_f0.h ****    template<class Pin> static constexpr Periph default_stream();
  81:mculib3/src/periph/usart_f0.h ****    template<class Pin> static constexpr PinMode pin_mode();
  82:mculib3/src/periph/usart_f0.h ****    template<Periph usart, class TXpin, class RXpin> static void pin_static_assert();
  83:mculib3/src/periph/usart_f0.h **** };
  84:mculib3/src/periph/usart_f0.h **** 
  85:mculib3/src/periph/usart_f0.h **** 
  86:mculib3/src/periph/usart_f0.h **** 
  87:mculib3/src/periph/usart_f0.h **** #if not defined(USE_MOCK_USART)
  88:mculib3/src/periph/usart_f0.h **** SFINAE(USART1,USART) make_reference() {return *reinterpret_cast<USART*>(USART1_BASE);}
  89:mculib3/src/periph/usart_f0.h **** #endif
  90:mculib3/src/periph/usart_f0.h **** 
  91:mculib3/src/periph/usart_f0.h **** 
  92:mculib3/src/periph/usart_f0.h **** 
  93:mculib3/src/periph/usart_f0.h **** 
  94:mculib3/src/periph/usart_f0.h **** 
  95:mculib3/src/periph/usart_f0.h **** 
  96:mculib3/src/periph/usart_f0.h **** 
  97:mculib3/src/periph/usart_f0.h **** 
  98:mculib3/src/periph/usart_f0.h **** 
  99:mculib3/src/periph/usart_f0.h **** 
 100:mculib3/src/periph/usart_f0.h **** 
 101:mculib3/src/periph/usart_f0.h **** 
 102:mculib3/src/periph/usart_f0.h **** 
 103:mculib3/src/periph/usart_f0.h **** 
 104:mculib3/src/periph/usart_f0.h **** 
 105:mculib3/src/periph/usart_f0.h **** 
 106:mculib3/src/periph/usart_f0.h **** 
 107:mculib3/src/periph/usart_f0.h **** USART& USART::set (Baudrate baudrate, Periph p)
 108:mculib3/src/periph/usart_f0.h **** {
 1134              		.loc 10 108 1 is_stmt 1 view -0
 1135              		.cfi_startproc
 1136              		@ args = 0, pretend = 0, frame = 0
 1137              		@ frame_needed = 0, uses_anonymous_args = 0
 109:mculib3/src/periph/usart_f0.h ****    auto clock = REF(RCC).clock(p);
 1138              		.loc 10 109 4 view .LVU239
 1139              	.LBB1192:
 1140              	.LBI1192:
ARM GAS  /tmp/cc5K8h45.s 			page 50


 1141              		.file 13 "mculib3/src/periph/rcc_f0.h"
   1:mculib3/src/periph/rcc_f0.h **** #pragma once
   2:mculib3/src/periph/rcc_f0.h **** 
   3:mculib3/src/periph/rcc_f0.h **** #include "bits_rcc_f0.h"
   4:mculib3/src/periph/rcc_f0.h **** 
   5:mculib3/src/periph/rcc_f0.h **** namespace mcu {
   6:mculib3/src/periph/rcc_f0.h **** 
   7:mculib3/src/periph/rcc_f0.h **** class RCC {
   8:mculib3/src/periph/rcc_f0.h **** 	volatile RCC_bits::CR      CR;         // clock control register,                offset: 0x00
   9:mculib3/src/periph/rcc_f0.h **** 	volatile RCC_bits::CFGR    CFGR;       // clock configuration register,          offset: 0x04
  10:mculib3/src/periph/rcc_f0.h **** 	volatile uint32_t          CIR;        // clock interrupt register,              offset: 0x08
  11:mculib3/src/periph/rcc_f0.h **** 	volatile uint32_t          APB2RSTR;   // APB2 peripheral reset register,        offset: 0x0C
  12:mculib3/src/periph/rcc_f0.h **** 	volatile uint32_t          APB1RSTR;   // APB1 peripheral reset register,        offset: 0x10
  13:mculib3/src/periph/rcc_f0.h **** 	volatile RCC_bits::AHBENR  AHBENR;     // AHB peripheral clock register,         offset: 0x14
  14:mculib3/src/periph/rcc_f0.h **** 	volatile RCC_bits::APB2ENR APB2ENR;    // APB2 peripheral clock enable register, offset: 0x18
  15:mculib3/src/periph/rcc_f0.h **** 	volatile RCC_bits::APB1ENR APB1ENR;    // APB1 peripheral clock enable register, offset: 0x1C
  16:mculib3/src/periph/rcc_f0.h **** 	volatile uint32_t          BDCR;       // Backup domain control register,        offset: 0x20
  17:mculib3/src/periph/rcc_f0.h **** 	volatile uint32_t          CSR;        // clock control & status register,       offset: 0x24
  18:mculib3/src/periph/rcc_f0.h **** 	volatile uint32_t          AHBRSTR;    // AHB peripheral reset register,         offset: 0x28
  19:mculib3/src/periph/rcc_f0.h **** 	volatile uint32_t          CFGR2;      // clock configuration register 2,        offset: 0x2C
  20:mculib3/src/periph/rcc_f0.h **** 	volatile uint32_t          CFGR3;      // clock configuration register 3,        offset: 0x30
  21:mculib3/src/periph/rcc_f0.h **** 	volatile uint32_t          CR2;        // clock control register 2,              offset: 0x34
  22:mculib3/src/periph/rcc_f0.h **** 
  23:mculib3/src/periph/rcc_f0.h **** 
  24:mculib3/src/periph/rcc_f0.h **** public:
  25:mculib3/src/periph/rcc_f0.h **** 	using CMSIS_type    = RCC_TypeDef;
  26:mculib3/src/periph/rcc_f0.h **** 	using AHBprescaler  = RCC_bits::CFGR::AHBprescaler;
  27:mculib3/src/periph/rcc_f0.h **** 	using APBprescaler  = RCC_bits::CFGR::APBprescaler;
  28:mculib3/src/periph/rcc_f0.h **** 	using SystemClock   = RCC_bits::CFGR::SystemClock;
  29:mculib3/src/periph/rcc_f0.h **** 	using PLLsource     = RCC_bits::CFGR::PLLsource;
  30:mculib3/src/periph/rcc_f0.h **** 	using PLLmultiplier = RCC_bits::CFGR::PLLmultiplier;
  31:mculib3/src/periph/rcc_f0.h **** 
  32:mculib3/src/periph/rcc_f0.h **** 	auto& like_CMSIS() { return *reinterpret_cast<CMSIS_type*>(this); }
  33:mculib3/src/periph/rcc_f0.h **** 
  34:mculib3/src/periph/rcc_f0.h **** 	RCC& set (AHBprescaler  v) { CFGR.HPRE   = v; return *this; }
  35:mculib3/src/periph/rcc_f0.h **** 	RCC& set (APBprescaler  v) { CFGR.PPRE   = v; return *this; }
  36:mculib3/src/periph/rcc_f0.h **** 	RCC& set (SystemClock   v) { CFGR.SW     = v; return *this; }
  37:mculib3/src/periph/rcc_f0.h **** 	RCC& set (PLLsource     v) { CFGR.PLLSRC = v; return *this; }
  38:mculib3/src/periph/rcc_f0.h **** 	RCC& set (PLLmultiplier v) { CFGR.PLLMUL = v; return *this; }
  39:mculib3/src/periph/rcc_f0.h **** 
  40:mculib3/src/periph/rcc_f0.h **** 	RCC& on_HSE        () { CR.HSEON = true;         return *this; }
  41:mculib3/src/periph/rcc_f0.h **** 	RCC& wait_HSE_ready() { while (not CR.HSERDY) {} return *this; }
  42:mculib3/src/periph/rcc_f0.h **** 	RCC& on_PLL        () { CR.PLLON = true;         return *this; }
  43:mculib3/src/periph/rcc_f0.h **** 	RCC& wait_PLL_ready() { while (not CR.PLLRDY) {} return *this; }
  44:mculib3/src/periph/rcc_f0.h **** 
  45:mculib3/src/periph/rcc_f0.h **** 	size_t get_APB_clock()
  46:mculib3/src/periph/rcc_f0.h **** 	{
  47:mculib3/src/periph/rcc_f0.h **** 		auto v = CFGR.PPRE;
  48:mculib3/src/periph/rcc_f0.h **** 		return v == APBprescaler::APBnotdiv ? F_CPU     :
  49:mculib3/src/periph/rcc_f0.h **** 				 v == APBprescaler::APBdiv2   ? F_CPU / 2 :
  50:mculib3/src/periph/rcc_f0.h **** 				 v == APBprescaler::APBdiv4   ? F_CPU / 4 :
  51:mculib3/src/periph/rcc_f0.h **** 				 v == APBprescaler::APBdiv8   ? F_CPU / 8 :
  52:mculib3/src/periph/rcc_f0.h **** 														  F_CPU / 16;
  53:mculib3/src/periph/rcc_f0.h **** 	}
  54:mculib3/src/periph/rcc_f0.h **** 
  55:mculib3/src/periph/rcc_f0.h **** 	template<Periph p> void clock_enable()
  56:mculib3/src/periph/rcc_f0.h **** 	{
ARM GAS  /tmp/cc5K8h45.s 			page 51


  57:mculib3/src/periph/rcc_f0.h **** 		if      constexpr (p == Periph::GPIOA)  AHBENR .IOPAEN  = true;
  58:mculib3/src/periph/rcc_f0.h **** 		else if constexpr (p == Periph::GPIOB)  AHBENR .IOPBEN  = true;
  59:mculib3/src/periph/rcc_f0.h **** 		else if constexpr (p == Periph::GPIOC)  AHBENR .IOPCEN  = true;
  60:mculib3/src/periph/rcc_f0.h **** 		else if constexpr (p == Periph::GPIOD)  AHBENR .IOPDEN  = true;
  61:mculib3/src/periph/rcc_f0.h **** 		else if constexpr (p == Periph::GPIOF)  AHBENR .IOPFEN  = true;
  62:mculib3/src/periph/rcc_f0.h **** 
  63:mculib3/src/periph/rcc_f0.h **** 		else if constexpr (p == Periph::USART1) APB2ENR.USART1EN  = true;
  64:mculib3/src/periph/rcc_f0.h **** 
  65:mculib3/src/periph/rcc_f0.h **** 		else if constexpr (p == Periph::TIM1)   APB2ENR.TIM1EN  = true;
  66:mculib3/src/periph/rcc_f0.h **** 		else if constexpr (p == Periph::TIM3)   APB1ENR.TIM3EN  = true;
  67:mculib3/src/periph/rcc_f0.h **** 		else if constexpr (p == Periph::TIM14)  APB1ENR.TIM14EN = true;
  68:mculib3/src/periph/rcc_f0.h **** 		else if constexpr (p == Periph::TIM16)  APB2ENR.TIM16EN = true;
  69:mculib3/src/periph/rcc_f0.h **** 		else if constexpr (p == Periph::TIM17)  APB2ENR.TIM17EN = true;
  70:mculib3/src/periph/rcc_f0.h **** 
  71:mculib3/src/periph/rcc_f0.h **** 		else if constexpr (p == Periph::DMA1)         AHBENR.DMAEN = true;
  72:mculib3/src/periph/rcc_f0.h **** 		else if constexpr (p == Periph::DMA1_stream1) AHBENR.DMAEN = true;
  73:mculib3/src/periph/rcc_f0.h **** 		else if constexpr (p == Periph::DMA1_stream2) AHBENR.DMAEN = true;
  74:mculib3/src/periph/rcc_f0.h **** 		else if constexpr (p == Periph::DMA1_stream3) AHBENR.DMAEN = true;
  75:mculib3/src/periph/rcc_f0.h **** 		else if constexpr (p == Periph::DMA1_stream4) AHBENR.DMAEN = true;
  76:mculib3/src/periph/rcc_f0.h **** 		else if constexpr (p == Periph::DMA1_stream5) AHBENR.DMAEN = true;
  77:mculib3/src/periph/rcc_f0.h **** 
  78:mculib3/src/periph/rcc_f0.h **** 		else if constexpr (p == Periph::ADC1)   APB2ENR.ADC1EN = true;
  79:mculib3/src/periph/rcc_f0.h **** 		
  80:mculib3/src/periph/rcc_f0.h ****         else static_assert ( always_false_v<decltype(p)>, " clock_enable");
  81:mculib3/src/periph/rcc_f0.h **** 	}
  82:mculib3/src/periph/rcc_f0.h **** 
  83:mculib3/src/periph/rcc_f0.h **** 	auto clock (Periph p) { return get_APB_clock(); }
 1142              		.loc 13 83 7 view .LVU240
 1143              		.loc 13 83 7 is_stmt 0 view .LVU241
 1144              	.LBE1192:
 1145              		.loc 13 83 26 is_stmt 1 view .LVU242
 1146              	.LBB1203:
 1147              	.LBB1193:
 1148              	.LBI1193:
  45:mculib3/src/periph/rcc_f0.h **** 	{
 1149              		.loc 13 45 9 view .LVU243
 1150              	.LBB1194:
  47:mculib3/src/periph/rcc_f0.h **** 		return v == APBprescaler::APBnotdiv ? F_CPU     :
 1151              		.loc 13 47 3 view .LVU244
  47:mculib3/src/periph/rcc_f0.h **** 		return v == APBprescaler::APBnotdiv ? F_CPU     :
 1152              		.loc 13 47 17 is_stmt 0 view .LVU245
 1153 0000 1C4B     		ldr	r3, .L86
 1154              	.LBE1194:
 1155              	.LBE1193:
 1156              	.LBE1203:
 108:mculib3/src/periph/usart_f0.h ****    auto clock = REF(RCC).clock(p);
 1157              		.loc 10 108 1 view .LVU246
 1158 0002 10B5     		push	{r4, lr}
 1159              	.LCFI9:
 1160              		.cfi_def_cfa_offset 8
 1161              		.cfi_offset 4, -8
 1162              		.cfi_offset 14, -4
 1163              	.LBB1204:
 1164              	.LBB1199:
 1165              	.LBB1195:
  47:mculib3/src/periph/rcc_f0.h **** 		return v == APBprescaler::APBnotdiv ? F_CPU     :
 1166              		.loc 13 47 17 view .LVU247
ARM GAS  /tmp/cc5K8h45.s 			page 52


 1167 0004 5B68     		ldr	r3, [r3, #4]
 1168              	.LBE1195:
 1169              	.LBE1199:
 1170              	.LBE1204:
 108:mculib3/src/periph/usart_f0.h ****    auto clock = REF(RCC).clock(p);
 1171              		.loc 10 108 1 view .LVU248
 1172 0006 0400     		movs	r4, r0
 1173              	.LBB1205:
 1174              	.LBB1200:
 1175              	.LBB1196:
  47:mculib3/src/periph/rcc_f0.h **** 		return v == APBprescaler::APBnotdiv ? F_CPU     :
 1176              		.loc 13 47 17 view .LVU249
 1177 0008 5B05     		lsls	r3, r3, #21
 1178              	.LBE1196:
 1179              	.LBE1200:
 1180              	.LBE1205:
 108:mculib3/src/periph/usart_f0.h ****    auto clock = REF(RCC).clock(p);
 1181              		.loc 10 108 1 view .LVU250
 1182 000a 0800     		movs	r0, r1
 1183              	.LVL74:
 1184              	.LBB1206:
 1185              	.LBB1201:
 1186              	.LBB1197:
  47:mculib3/src/periph/rcc_f0.h **** 		return v == APBprescaler::APBnotdiv ? F_CPU     :
 1187              		.loc 13 47 17 view .LVU251
 1188 000c 5B0F     		lsrs	r3, r3, #29
 1189              	.LVL75:
  48:mculib3/src/periph/rcc_f0.h **** 				 v == APBprescaler::APBdiv2   ? F_CPU / 2 :
 1190              		.loc 13 48 3 is_stmt 1 view .LVU252
  48:mculib3/src/periph/rcc_f0.h **** 				 v == APBprescaler::APBdiv2   ? F_CPU / 2 :
 1191              		.loc 13 48 39 is_stmt 0 view .LVU253
 1192 000e 12D0     		beq	.L77
 1193 0010 042B     		cmp	r3, #4
 1194 0012 12D0     		beq	.L78
 1195 0014 052B     		cmp	r3, #5
 1196 0016 12D0     		beq	.L79
 1197 0018 063B     		subs	r3, r3, #6
 1198 001a 5A42     		rsbs	r2, r3, #0
 1199 001c 5341     		adcs	r3, r3, r2
 1200              	.LVL76:
  48:mculib3/src/periph/rcc_f0.h **** 				 v == APBprescaler::APBdiv2   ? F_CPU / 2 :
 1201              		.loc 13 48 39 view .LVU254
 1202 001e 164A     		ldr	r2, .L86+4
 1203 0020 5B42     		rsbs	r3, r3, #0
 1204 0022 1340     		ands	r3, r2
 1205 0024 9B18     		adds	r3, r3, r2
 1206              	.L66:
 1207              	.LVL77:
  48:mculib3/src/periph/rcc_f0.h **** 				 v == APBprescaler::APBdiv2   ? F_CPU / 2 :
 1208              		.loc 13 48 39 view .LVU255
 1209              	.LBE1197:
 1210              	.LBE1201:
 1211              	.LBE1206:
 110:mculib3/src/periph/usart_f0.h ****    switch (baudrate) {
 1212              		.loc 10 110 4 is_stmt 1 view .LVU256
 1213 0026 0728     		cmp	r0, #7
 1214 0028 11D8     		bhi	.L67
ARM GAS  /tmp/cc5K8h45.s 			page 53


 1215 002a FFF7FEFF 		bl	__gnu_thumb1_case_uqi
 1216              	.L69:
 1217 002e 0A       		.byte	(.L76-.L69)/2
 1218 002f 12       		.byte	(.L75-.L69)/2
 1219 0030 14       		.byte	(.L74-.L69)/2
 1220 0031 17       		.byte	(.L73-.L69)/2
 1221 0032 19       		.byte	(.L72-.L69)/2
 1222 0033 1C       		.byte	(.L71-.L69)/2
 1223 0034 1E       		.byte	(.L70-.L69)/2
 1224 0035 21       		.byte	(.L68-.L69)/2
 1225              	.LVL78:
 1226              		.p2align 1
 1227              	.L77:
 1228              	.LBB1207:
 1229              	.LBB1202:
 1230              	.LBB1198:
  48:mculib3/src/periph/rcc_f0.h **** 				 v == APBprescaler::APBdiv2   ? F_CPU / 2 :
 1231              		.loc 13 48 39 is_stmt 0 view .LVU257
 1232 0036 114B     		ldr	r3, .L86+8
 1233 0038 F5E7     		b	.L66
 1234              	.L78:
 1235 003a 114B     		ldr	r3, .L86+12
 1236 003c F3E7     		b	.L66
 1237              	.L79:
 1238 003e 114B     		ldr	r3, .L86+16
 1239 0040 F1E7     		b	.L66
 1240              	.LVL79:
 1241              	.L76:
  48:mculib3/src/periph/rcc_f0.h **** 				 v == APBprescaler::APBdiv2   ? F_CPU / 2 :
 1242              		.loc 13 48 39 view .LVU258
 1243              	.LBE1198:
 1244              	.LBE1202:
 1245              	.LBE1207:
 111:mculib3/src/periph/usart_f0.h ****       case BR9600:   BRR = clock/9600  ; break; 
 1246              		.loc 10 111 7 is_stmt 1 view .LVU259
 1247              		.loc 10 111 22 view .LVU260
 1248              		.loc 10 111 33 is_stmt 0 view .LVU261
 1249 0042 9621     		movs	r1, #150
 1250              	.LVL80:
 1251              	.L83:
 112:mculib3/src/periph/usart_f0.h ****       case BR14400:  BRR = clock/14400 ; break;
 1252              		.loc 10 112 33 view .LVU262
 1253 0044 8901     		lsls	r1, r1, #6
 1254              	.L81:
 113:mculib3/src/periph/usart_f0.h ****       case BR19200:  BRR = clock/19200 ; break;
 114:mculib3/src/periph/usart_f0.h ****       case BR28800:  BRR = clock/28800 ; break;
 115:mculib3/src/periph/usart_f0.h ****       case BR38400:  BRR = clock/38400 ; break;
 116:mculib3/src/periph/usart_f0.h ****       case BR57600:  BRR = clock/57600 ; break;
 117:mculib3/src/periph/usart_f0.h ****       case BR76800:  BRR = clock/76800 ; break;
 118:mculib3/src/periph/usart_f0.h ****       case BR115200: BRR = clock/115200; break;
 1255              		.loc 10 118 33 view .LVU263
 1256 0046 1800     		movs	r0, r3
 1257 0048 FFF7FEFF 		bl	__aeabi_uidiv
 1258              	.LVL81:
 1259              		.loc 10 118 26 view .LVU264
 1260 004c E060     		str	r0, [r4, #12]
 1261              		.loc 10 118 42 is_stmt 1 view .LVU265
ARM GAS  /tmp/cc5K8h45.s 			page 54


 1262              	.L67:
 119:mculib3/src/periph/usart_f0.h ****    }
 120:mculib3/src/periph/usart_f0.h ****    return *this;
 1263              		.loc 10 120 4 view .LVU266
 121:mculib3/src/periph/usart_f0.h **** }
 1264              		.loc 10 121 1 is_stmt 0 view .LVU267
 1265 004e 2000     		movs	r0, r4
 1266              		@ sp needed
 1267              	.LVL82:
 1268              		.loc 10 121 1 view .LVU268
 1269 0050 10BD     		pop	{r4, pc}
 1270              	.LVL83:
 1271              	.L75:
 112:mculib3/src/periph/usart_f0.h ****       case BR19200:  BRR = clock/19200 ; break;
 1272              		.loc 10 112 7 is_stmt 1 view .LVU269
 112:mculib3/src/periph/usart_f0.h ****       case BR19200:  BRR = clock/19200 ; break;
 1273              		.loc 10 112 22 view .LVU270
 112:mculib3/src/periph/usart_f0.h ****       case BR19200:  BRR = clock/19200 ; break;
 1274              		.loc 10 112 33 is_stmt 0 view .LVU271
 1275 0052 E121     		movs	r1, #225
 1276              	.LVL84:
 112:mculib3/src/periph/usart_f0.h ****       case BR19200:  BRR = clock/19200 ; break;
 1277              		.loc 10 112 33 view .LVU272
 1278 0054 F6E7     		b	.L83
 1279              	.LVL85:
 1280              	.L74:
 113:mculib3/src/periph/usart_f0.h ****       case BR28800:  BRR = clock/28800 ; break;
 1281              		.loc 10 113 7 is_stmt 1 view .LVU273
 113:mculib3/src/periph/usart_f0.h ****       case BR28800:  BRR = clock/28800 ; break;
 1282              		.loc 10 113 22 view .LVU274
 113:mculib3/src/periph/usart_f0.h ****       case BR28800:  BRR = clock/28800 ; break;
 1283              		.loc 10 113 33 is_stmt 0 view .LVU275
 1284 0056 9621     		movs	r1, #150
 1285              	.LVL86:
 1286              	.L85:
 114:mculib3/src/periph/usart_f0.h ****       case BR38400:  BRR = clock/38400 ; break;
 1287              		.loc 10 114 33 view .LVU276
 1288 0058 C901     		lsls	r1, r1, #7
 1289 005a F4E7     		b	.L81
 1290              	.LVL87:
 1291              	.L73:
 114:mculib3/src/periph/usart_f0.h ****       case BR38400:  BRR = clock/38400 ; break;
 1292              		.loc 10 114 7 is_stmt 1 view .LVU277
 114:mculib3/src/periph/usart_f0.h ****       case BR38400:  BRR = clock/38400 ; break;
 1293              		.loc 10 114 22 view .LVU278
 114:mculib3/src/periph/usart_f0.h ****       case BR38400:  BRR = clock/38400 ; break;
 1294              		.loc 10 114 33 is_stmt 0 view .LVU279
 1295 005c E121     		movs	r1, #225
 1296              	.LVL88:
 114:mculib3/src/periph/usart_f0.h ****       case BR38400:  BRR = clock/38400 ; break;
 1297              		.loc 10 114 33 view .LVU280
 1298 005e FBE7     		b	.L85
 1299              	.LVL89:
 1300              	.L72:
 115:mculib3/src/periph/usart_f0.h ****       case BR57600:  BRR = clock/57600 ; break;
 1301              		.loc 10 115 7 is_stmt 1 view .LVU281
 115:mculib3/src/periph/usart_f0.h ****       case BR57600:  BRR = clock/57600 ; break;
ARM GAS  /tmp/cc5K8h45.s 			page 55


 1302              		.loc 10 115 22 view .LVU282
 115:mculib3/src/periph/usart_f0.h ****       case BR57600:  BRR = clock/57600 ; break;
 1303              		.loc 10 115 33 is_stmt 0 view .LVU283
 1304 0060 9621     		movs	r1, #150
 1305              	.LVL90:
 1306              	.L84:
 116:mculib3/src/periph/usart_f0.h ****       case BR76800:  BRR = clock/76800 ; break;
 1307              		.loc 10 116 33 view .LVU284
 1308 0062 0902     		lsls	r1, r1, #8
 1309 0064 EFE7     		b	.L81
 1310              	.LVL91:
 1311              	.L71:
 116:mculib3/src/periph/usart_f0.h ****       case BR76800:  BRR = clock/76800 ; break;
 1312              		.loc 10 116 7 is_stmt 1 view .LVU285
 116:mculib3/src/periph/usart_f0.h ****       case BR76800:  BRR = clock/76800 ; break;
 1313              		.loc 10 116 22 view .LVU286
 116:mculib3/src/periph/usart_f0.h ****       case BR76800:  BRR = clock/76800 ; break;
 1314              		.loc 10 116 33 is_stmt 0 view .LVU287
 1315 0066 E121     		movs	r1, #225
 1316              	.LVL92:
 116:mculib3/src/periph/usart_f0.h ****       case BR76800:  BRR = clock/76800 ; break;
 1317              		.loc 10 116 33 view .LVU288
 1318 0068 FBE7     		b	.L84
 1319              	.LVL93:
 1320              	.L70:
 117:mculib3/src/periph/usart_f0.h ****       case BR115200: BRR = clock/115200; break;
 1321              		.loc 10 117 7 is_stmt 1 view .LVU289
 117:mculib3/src/periph/usart_f0.h ****       case BR115200: BRR = clock/115200; break;
 1322              		.loc 10 117 22 view .LVU290
 117:mculib3/src/periph/usart_f0.h ****       case BR115200: BRR = clock/115200; break;
 1323              		.loc 10 117 33 is_stmt 0 view .LVU291
 1324 006a 9621     		movs	r1, #150
 1325              	.LVL94:
 1326              	.L82:
 118:mculib3/src/periph/usart_f0.h ****    }
 1327              		.loc 10 118 33 view .LVU292
 1328 006c 4902     		lsls	r1, r1, #9
 1329 006e EAE7     		b	.L81
 1330              	.LVL95:
 1331              	.L68:
 118:mculib3/src/periph/usart_f0.h ****    }
 1332              		.loc 10 118 7 is_stmt 1 view .LVU293
 118:mculib3/src/periph/usart_f0.h ****    }
 1333              		.loc 10 118 22 view .LVU294
 118:mculib3/src/periph/usart_f0.h ****    }
 1334              		.loc 10 118 33 is_stmt 0 view .LVU295
 1335 0070 E121     		movs	r1, #225
 1336              	.LVL96:
 118:mculib3/src/periph/usart_f0.h ****    }
 1337              		.loc 10 118 33 view .LVU296
 1338 0072 FBE7     		b	.L82
 1339              	.L87:
 1340              		.align	2
 1341              	.L86:
 1342 0074 00100240 		.word	1073876992
 1343 0078 C0C62D00 		.word	3000000
 1344 007c 006CDC02 		.word	48000000
ARM GAS  /tmp/cc5K8h45.s 			page 56


 1345 0080 00366E01 		.word	24000000
 1346 0084 001BB700 		.word	12000000
 1347              		.cfi_endproc
 1348              	.LFE3663:
 1350              		.section	.text._ZN3mcu3DMA21clear_interrupt_flagsENS0_7ChannelE,"ax",%progbits
 1351              		.align	1
 1352              		.global	_ZN3mcu3DMA21clear_interrupt_flagsENS0_7ChannelE
 1353              		.syntax unified
 1354              		.code	16
 1355              		.thumb_func
 1356              		.fpu softvfp
 1358              	_ZN3mcu3DMA21clear_interrupt_flagsENS0_7ChannelE:
 1359              	.LVL97:
 1360              	.LFB3674:
 1361              		.file 14 "mculib3/src/periph/dma_f0.h"
   1:mculib3/src/periph/dma_f0.h **** #pragma once
   2:mculib3/src/periph/dma_f0.h **** 
   3:mculib3/src/periph/dma_f0.h **** #include "bits_dma_f0.h"
   4:mculib3/src/periph/dma_f0.h **** #include  <cstring>
   5:mculib3/src/periph/dma_f0.h **** 
   6:mculib3/src/periph/dma_f0.h **** namespace mcu {
   7:mculib3/src/periph/dma_f0.h **** 
   8:mculib3/src/periph/dma_f0.h **** class DMA
   9:mculib3/src/periph/dma_f0.h **** {
  10:mculib3/src/periph/dma_f0.h ****     volatile DMA_bits::ISR  ISR;  // DMA interrupt status register     offset: 0x00
  11:mculib3/src/periph/dma_f0.h ****     volatile DMA_bits::IFCR IFCR; // DMA interrupt flag clear register offset: 0x04
  12:mculib3/src/periph/dma_f0.h **** 
  13:mculib3/src/periph/dma_f0.h **** public:
  14:mculib3/src/periph/dma_f0.h ****     using CMSIS_type = DMA_TypeDef;
  15:mculib3/src/periph/dma_f0.h ****     enum class Channel { _1 = 1, _2, _3, _4, _5, error };
  16:mculib3/src/periph/dma_f0.h **** 
  17:mculib3/src/periph/dma_f0.h ****     auto& like_CMSIS() { return *reinterpret_cast<CMSIS_type*>(this); }
  18:mculib3/src/periph/dma_f0.h **** 
  19:mculib3/src/periph/dma_f0.h ****     void clear_interrupt_flags         (Channel);
  20:mculib3/src/periph/dma_f0.h ****     bool is_transfer_complete_interrupt(Channel);
  21:mculib3/src/periph/dma_f0.h **** };
  22:mculib3/src/periph/dma_f0.h **** 
  23:mculib3/src/periph/dma_f0.h **** #if not defined(USE_MOCK_DMA)
  24:mculib3/src/periph/dma_f0.h **** // template <Periph dma> std::enable_if_t<dma == Periph::DMA1, DMA&> make_reference() {return *rein
  25:mculib3/src/periph/dma_f0.h **** template <Periph dma> std::enable_if_t<dma == Periph::DMA1, DMA&> make_reference() {return *new((vo
  26:mculib3/src/periph/dma_f0.h **** #endif
  27:mculib3/src/periph/dma_f0.h **** 
  28:mculib3/src/periph/dma_f0.h **** 
  29:mculib3/src/periph/dma_f0.h **** 
  30:mculib3/src/periph/dma_f0.h **** 
  31:mculib3/src/periph/dma_f0.h **** 
  32:mculib3/src/periph/dma_f0.h **** 
  33:mculib3/src/periph/dma_f0.h **** 
  34:mculib3/src/periph/dma_f0.h **** 
  35:mculib3/src/periph/dma_f0.h **** void DMA::clear_interrupt_flags(Channel v)
  36:mculib3/src/periph/dma_f0.h **** {
 1362              		.loc 14 36 1 is_stmt 1 view -0
 1363              		.cfi_startproc
 1364              		@ args = 0, pretend = 0, frame = 0
 1365              		@ frame_needed = 0, uses_anonymous_args = 0
 1366              		@ link register save eliminated.
  37:mculib3/src/periph/dma_f0.h ****     // -fno-strict-volatile-bitfields dosent work
ARM GAS  /tmp/cc5K8h45.s 			page 57


  38:mculib3/src/periph/dma_f0.h ****     // if      (v == Channel::_1) IFCR.CGIF1 = true;
  39:mculib3/src/periph/dma_f0.h ****     // else if (v == Channel::_2) IFCR.CGIF2 = true;
  40:mculib3/src/periph/dma_f0.h ****     // else if (v == Channel::_3) IFCR.CGIF3 = true;
  41:mculib3/src/periph/dma_f0.h ****     // else if (v == Channel::_4) IFCR.CGIF4 = true;
  42:mculib3/src/periph/dma_f0.h ****     // else if (v == Channel::_5) IFCR.CGIF5 = true;
  43:mculib3/src/periph/dma_f0.h ****     registr(IFCR) = (1 << ((static_cast<uint8_t>(v) - 1)*4));
 1367              		.loc 14 43 5 view .LVU298
 1368              		.loc 14 43 24 is_stmt 0 view .LVU299
 1369 0000 0123     		movs	r3, #1
 1370              		.loc 14 43 53 view .LVU300
 1371 0002 C9B2     		uxtb	r1, r1
 1372              	.LVL98:
 1373              		.loc 14 43 53 view .LVU301
 1374 0004 0139     		subs	r1, r1, #1
 1375              		.loc 14 43 57 view .LVU302
 1376 0006 8900     		lsls	r1, r1, #2
 1377              		.loc 14 43 24 view .LVU303
 1378 0008 8B40     		lsls	r3, r3, r1
  44:mculib3/src/periph/dma_f0.h **** }
 1379              		.loc 14 44 1 view .LVU304
 1380              		@ sp needed
  43:mculib3/src/periph/dma_f0.h **** }
 1381              		.loc 14 43 19 view .LVU305
 1382 000a 4360     		str	r3, [r0, #4]
 1383              		.loc 14 44 1 view .LVU306
 1384 000c 7047     		bx	lr
 1385              		.cfi_endproc
 1386              	.LFE3674:
 1388              		.section	.text._ZN3mcu3DMA30is_transfer_complete_interruptENS0_7ChannelE,"ax",%progbits
 1389              		.align	1
 1390              		.global	_ZN3mcu3DMA30is_transfer_complete_interruptENS0_7ChannelE
 1391              		.syntax unified
 1392              		.code	16
 1393              		.thumb_func
 1394              		.fpu softvfp
 1396              	_ZN3mcu3DMA30is_transfer_complete_interruptENS0_7ChannelE:
 1397              	.LVL99:
 1398              	.LFB3676:
  45:mculib3/src/periph/dma_f0.h **** 
  46:mculib3/src/periph/dma_f0.h **** bool DMA::is_transfer_complete_interrupt(Channel v)
  47:mculib3/src/periph/dma_f0.h **** {
 1399              		.loc 14 47 1 is_stmt 1 view -0
 1400              		.cfi_startproc
 1401              		@ args = 0, pretend = 0, frame = 0
 1402              		@ frame_needed = 0, uses_anonymous_args = 0
 1403              		@ link register save eliminated.
  48:mculib3/src/periph/dma_f0.h ****     // -fno-strict-volatile-bitfields dosent work
  49:mculib3/src/periph/dma_f0.h ****     // if      (v == Channel::_1) return ISR.TCIF1;
  50:mculib3/src/periph/dma_f0.h ****     // else if (v == Channel::_2) return ISR.TCIF2;
  51:mculib3/src/periph/dma_f0.h ****     // else if (v == Channel::_3) return ISR.TCIF3;
  52:mculib3/src/periph/dma_f0.h ****     // else if (v == Channel::_4) return ISR.TCIF4;
  53:mculib3/src/periph/dma_f0.h ****     // else if (v == Channel::_5) return ISR.TCIF5;
  54:mculib3/src/periph/dma_f0.h ****     // else return false;
  55:mculib3/src/periph/dma_f0.h ****     return registr(ISR) & (1 << (1 + (static_cast<uint8_t>(v) - 1)*4));
 1404              		.loc 14 55 5 view .LVU308
 1405              		.loc 14 55 30 is_stmt 0 view .LVU309
 1406 0000 0123     		movs	r3, #1
ARM GAS  /tmp/cc5K8h45.s 			page 58


 1407              		.loc 14 55 63 view .LVU310
 1408 0002 C9B2     		uxtb	r1, r1
 1409              	.LVL100:
 1410              		.loc 14 55 67 view .LVU311
 1411 0004 8900     		lsls	r1, r1, #2
 1412              		.loc 14 55 36 view .LVU312
 1413 0006 0339     		subs	r1, r1, #3
 1414              		.loc 14 55 30 view .LVU313
 1415 0008 8B40     		lsls	r3, r3, r1
 1416              		.loc 14 55 19 view .LVU314
 1417 000a 0068     		ldr	r0, [r0]
 1418              	.LVL101:
  56:mculib3/src/periph/dma_f0.h **** }
 1419              		.loc 14 56 1 view .LVU315
 1420              		@ sp needed
  55:mculib3/src/periph/dma_f0.h **** }
 1421              		.loc 14 55 25 view .LVU316
 1422 000c 1840     		ands	r0, r3
  55:mculib3/src/periph/dma_f0.h **** }
 1423              		.loc 14 55 70 view .LVU317
 1424 000e 431E     		subs	r3, r0, #1
 1425 0010 9841     		sbcs	r0, r0, r3
 1426 0012 C0B2     		uxtb	r0, r0
 1427              		.loc 14 56 1 view .LVU318
 1428 0014 7047     		bx	lr
 1429              		.cfi_endproc
 1430              	.LFE3676:
 1432              		.section	.text._ZN3mcu3TIM14compare_enableENS0_7ChannelE,"ax",%progbits
 1433              		.align	1
 1434              		.global	_ZN3mcu3TIM14compare_enableENS0_7ChannelE
 1435              		.syntax unified
 1436              		.code	16
 1437              		.thumb_func
 1438              		.fpu softvfp
 1440              	_ZN3mcu3TIM14compare_enableENS0_7ChannelE:
 1441              	.LVL102:
 1442              	.LFB3769:
 1443              		.file 15 "mculib3/src/periph/tim_f0_f4.h"
   1:mculib3/src/periph/tim_f0_f4.h **** #pragma once
   2:mculib3/src/periph/tim_f0_f4.h **** 
   3:mculib3/src/periph/tim_f0_f4.h **** #include "periph.h"
   4:mculib3/src/periph/tim_f0_f4.h **** #if   defined(STM32F0)
   5:mculib3/src/periph/tim_f0_f4.h ****    #include "bits_tim_f0.h"
   6:mculib3/src/periph/tim_f0_f4.h **** #elif defined(STM32F4)
   7:mculib3/src/periph/tim_f0_f4.h ****    #include "bits_tim_f4.h"
   8:mculib3/src/periph/tim_f0_f4.h **** #endif
   9:mculib3/src/periph/tim_f0_f4.h **** #include "periph_rcc.h"
  10:mculib3/src/periph/tim_f0_f4.h **** #include "pin.h"
  11:mculib3/src/periph/tim_f0_f4.h **** #include <type_traits>
  12:mculib3/src/periph/tim_f0_f4.h **** 
  13:mculib3/src/periph/tim_f0_f4.h **** namespace mcu {
  14:mculib3/src/periph/tim_f0_f4.h **** 
  15:mculib3/src/periph/tim_f0_f4.h **** class TIM {
  16:mculib3/src/periph/tim_f0_f4.h ****    volatile TIM_bits::CR1  CR1;  // control register 1,                     offset: 0x00
  17:mculib3/src/periph/tim_f0_f4.h ****    volatile TIM_bits::CR2  CR2;  // control register 2,                     offset: 0x04
  18:mculib3/src/periph/tim_f0_f4.h ****    volatile TIM_bits::SMCR SMCR; // slave Mode Control register,            offset: 0x08
  19:mculib3/src/periph/tim_f0_f4.h ****    volatile TIM_bits::DIER DIER; // DMA/interrupt enable register,          offset: 0x0C
ARM GAS  /tmp/cc5K8h45.s 			page 59


  20:mculib3/src/periph/tim_f0_f4.h ****    volatile TIM_bits::SR   SR;   // status register,                        offset: 0x10
  21:mculib3/src/periph/tim_f0_f4.h ****    volatile uint32_t       EGR;  // event generation register,              offset: 0x14
  22:mculib3/src/periph/tim_f0_f4.h ****    volatile TIM_bits::CCMR CCMR; // capture/compare mode register,          offset: 0x18
  23:mculib3/src/periph/tim_f0_f4.h ****    volatile TIM_bits::CCER CCER; // capture/compare enable register,        offset: 0x20
  24:mculib3/src/periph/tim_f0_f4.h ****    volatile uint32_t       CNT;  // counter register,                       offset: 0x24
  25:mculib3/src/periph/tim_f0_f4.h ****    volatile uint32_t       PSC;  // prescaler register,                     offset: 0x28
  26:mculib3/src/periph/tim_f0_f4.h ****    volatile uint32_t       ARR;  // auto-reload register,                   offset: 0x2C
  27:mculib3/src/periph/tim_f0_f4.h ****    volatile uint32_t       RCR;  // repetition counter register,            offset: 0x30
  28:mculib3/src/periph/tim_f0_f4.h ****    volatile uint32_t       CCR1; // capture/compare registers 1-4,          offset: 0x34
  29:mculib3/src/periph/tim_f0_f4.h ****    volatile uint32_t       CCR2; // capture/compare register 2,             offset: 0x38
  30:mculib3/src/periph/tim_f0_f4.h ****    volatile uint32_t       CCR3; // capture/compare register 3,             offset: 0x3C
  31:mculib3/src/periph/tim_f0_f4.h ****    volatile uint32_t       CCR4; // capture/compare register 4,             offset: 0x40
  32:mculib3/src/periph/tim_f0_f4.h **** #if defined(STM32F0)
  33:mculib3/src/periph/tim_f0_f4.h ****    volatile TIM_bits::BDTR BDTR; // break and dead-time register,           offset: 0x44
  34:mculib3/src/periph/tim_f0_f4.h **** #elif defined(STM32F4)
  35:mculib3/src/periph/tim_f0_f4.h ****    volatile uint32_t       res;  // break and dead-time register,           offset: 0x44
  36:mculib3/src/periph/tim_f0_f4.h **** #endif
  37:mculib3/src/periph/tim_f0_f4.h ****    volatile TIM_bits::DCR  DCR;  // DMA control register,                   offset: 0x48
  38:mculib3/src/periph/tim_f0_f4.h ****    volatile uint32_t       DMAR; // DMA address for full transfer register, offset: 0x4C
  39:mculib3/src/periph/tim_f0_f4.h ****    volatile uint32_t       OR;   // option register,                        offset: 0x50
  40:mculib3/src/periph/tim_f0_f4.h **** public:
  41:mculib3/src/periph/tim_f0_f4.h ****    auto& like_CMSIS() { return *reinterpret_cast<CMSIS_type*>(this); }
  42:mculib3/src/periph/tim_f0_f4.h **** 
  43:mculib3/src/periph/tim_f0_f4.h ****    using CMSIS_type           = TIM_TypeDef;
  44:mculib3/src/periph/tim_f0_f4.h ****    using CompareMode          = TIM_bits::Output_t::CompareMode;
  45:mculib3/src/periph/tim_f0_f4.h ****    // using OnePulseMode         = TIM_bits::CR1::OnePulseMode;
  46:mculib3/src/periph/tim_f0_f4.h ****    // using Direction            = TIM_bits::CR1::Direction;
  47:mculib3/src/periph/tim_f0_f4.h ****    using SlaveMode            = TIM_bits::SMCR::SlaveMode;
  48:mculib3/src/periph/tim_f0_f4.h ****    using Trigger              = TIM_bits::SMCR::Trigger;
  49:mculib3/src/periph/tim_f0_f4.h ****    // using ExtTriggerPolarity   = TIM_bits::SMCR::ExtTriggerPolarity;
  50:mculib3/src/periph/tim_f0_f4.h ****    using SelectionCompareMode = TIM_bits::SelectionCompareMode;
  51:mculib3/src/periph/tim_f0_f4.h ****    using Polarity             = TIM_bits::CCER::Polarity;
  52:mculib3/src/periph/tim_f0_f4.h ****    using Filter               = TIM_bits::Filter;
  53:mculib3/src/periph/tim_f0_f4.h ****    enum Channel {_1 = 1, _2, _3, _4, error};
  54:mculib3/src/periph/tim_f0_f4.h ****    enum EnableMask { 
  55:mculib3/src/periph/tim_f0_f4.h ****       ch1 = TIM_CCER_CC1E_Msk,
  56:mculib3/src/periph/tim_f0_f4.h ****       ch2 = TIM_CCER_CC2E_Msk,
  57:mculib3/src/periph/tim_f0_f4.h ****       ch3 = TIM_CCER_CC3E_Msk,
  58:mculib3/src/periph/tim_f0_f4.h ****       ch4 = TIM_CCER_CC4E_Msk
  59:mculib3/src/periph/tim_f0_f4.h ****    };
  60:mculib3/src/periph/tim_f0_f4.h ****    // enum InterruptMask { 
  61:mculib3/src/periph/tim_f0_f4.h ****    //    ch1 = TIM_DIER_CC1IE_Msk,
  62:mculib3/src/periph/tim_f0_f4.h ****    //    ch2 = TIM_DIER_CC2IE_Msk,
  63:mculib3/src/periph/tim_f0_f4.h ****    //    ch3 = TIM_DIER_CC3IE_Msk,
  64:mculib3/src/periph/tim_f0_f4.h ****    //    ch4 = TIM_DIER_CC4IE_Msk
  65:mculib3/src/periph/tim_f0_f4.h ****    // };
  66:mculib3/src/periph/tim_f0_f4.h **** 
  67:mculib3/src/periph/tim_f0_f4.h ****    
  68:mculib3/src/periph/tim_f0_f4.h ****    TIM&     counter_enable()                { CR1.CEN = true;     return *this; }
  69:mculib3/src/periph/tim_f0_f4.h ****    TIM&     counter_disable()               { CR1.CEN = false;    return *this; }
  70:mculib3/src/periph/tim_f0_f4.h ****    TIM&     clear_counter()                 { CNT = 0;            return *this; }
  71:mculib3/src/periph/tim_f0_f4.h ****    TIM&     set_counter (uint16_t v)        { CNT = v;            return *this; }
  72:mculib3/src/periph/tim_f0_f4.h ****    TIM&     ext_clock_enable()              { SMCR.ECE = true;    return *this; }
  73:mculib3/src/periph/tim_f0_f4.h ****    TIM&     ext_clock_disable()             { SMCR.ECE = false;   return *this; }
  74:mculib3/src/periph/tim_f0_f4.h ****    TIM&     set_prescaller (uint16_t v)     { PSC = v;            return *this; }
  75:mculib3/src/periph/tim_f0_f4.h ****    TIM&     auto_reload_enable()            { CR1.ARPE = true;    return *this; }
  76:mculib3/src/periph/tim_f0_f4.h ****    TIM&     set (SlaveMode v)               { SMCR.SMS = v;       return *this; }
ARM GAS  /tmp/cc5K8h45.s 			page 60


  77:mculib3/src/periph/tim_f0_f4.h ****    TIM&     set (Trigger v)                 { SMCR.TS  = v;       return *this; }
  78:mculib3/src/periph/tim_f0_f4.h ****    TIM&     set_auto_reload  (uint16_t v)   { ARR = v;            return *this; }
  79:mculib3/src/periph/tim_f0_f4.h ****    TIM&     update_interrupt_enable()       { DIER.UIE = true;    return *this; }
  80:mculib3/src/periph/tim_f0_f4.h ****    TIM&     compare_enable   (uint32_t v)   { registr(CCER) |=  v; return *this; } // TODO ??????? 
  81:mculib3/src/periph/tim_f0_f4.h ****    TIM&     compare_disable  (uint32_t v)   { *reinterpret_cast<__IO uint32_t*>(&CCER) &= ~v; retur
  82:mculib3/src/periph/tim_f0_f4.h ****    TIM&     interrupt_enable (uint32_t v)   { *reinterpret_cast<__IO uint32_t*>(&DIER) |=  v; retur
  83:mculib3/src/periph/tim_f0_f4.h ****    TIM&     interrupt_disable(uint32_t v)   { *reinterpret_cast<__IO uint32_t*>(&DIER) &= ~v; retur
  84:mculib3/src/periph/tim_f0_f4.h ****    TIM&     compare_enable (Channel);
  85:mculib3/src/periph/tim_f0_f4.h ****    TIM&     compare_disable(Channel);
  86:mculib3/src/periph/tim_f0_f4.h ****    TIM&     interrupt_enable (Channel);
  87:mculib3/src/periph/tim_f0_f4.h ****    bool     is_compare (Channel);
  88:mculib3/src/periph/tim_f0_f4.h **** #if defined(STM32F0)
  89:mculib3/src/periph/tim_f0_f4.h ****    TIM&     main_output_enable()            { BDTR.MOE = true;    return *this; }
  90:mculib3/src/periph/tim_f0_f4.h **** #endif
  91:mculib3/src/periph/tim_f0_f4.h ****    
  92:mculib3/src/periph/tim_f0_f4.h ****    bool     is_count()                      { return CR1.CEN; }
  93:mculib3/src/periph/tim_f0_f4.h ****    uint16_t get_counter()                   { return CNT;     }
  94:mculib3/src/periph/tim_f0_f4.h **** 
  95:mculib3/src/periph/tim_f0_f4.h ****    void clear_interrupt_flags() {SR.UIF = false;}
  96:mculib3/src/periph/tim_f0_f4.h ****    bool update_interrupt() {return SR.UIF;}
  97:mculib3/src/periph/tim_f0_f4.h **** 
  98:mculib3/src/periph/tim_f0_f4.h ****    template<Channel> TIM& set (Filter);
  99:mculib3/src/periph/tim_f0_f4.h ****    template<Channel> TIM& set_trigger();
 100:mculib3/src/periph/tim_f0_f4.h ****    template<Channel> TIM& set (Polarity);
 101:mculib3/src/periph/tim_f0_f4.h ****    template<Channel> TIM& set (CompareMode);
 102:mculib3/src/periph/tim_f0_f4.h ****    template<Channel> TIM& set (SelectionCompareMode);
 103:mculib3/src/periph/tim_f0_f4.h ****    template<Channel> TIM& preload_enable ();
 104:mculib3/src/periph/tim_f0_f4.h ****    template<Channel> TIM& preload_disable();
 105:mculib3/src/periph/tim_f0_f4.h ****    template<Channel> TIM& compareToggle  ();
 106:mculib3/src/periph/tim_f0_f4.h ****    template<Channel> TIM& compare_enable ();
 107:mculib3/src/periph/tim_f0_f4.h ****    template<Channel> TIM& compare_disable();
 108:mculib3/src/periph/tim_f0_f4.h ****    TIM& set_compare (Channel, uint16_t);
 109:mculib3/src/periph/tim_f0_f4.h ****    template<Channel>  __IO uint32_t& get_compare_reference();
 110:mculib3/src/periph/tim_f0_f4.h **** 
 111:mculib3/src/periph/tim_f0_f4.h ****    template<Periph, class Pin_> static constexpr PinMode pin_mode();
 112:mculib3/src/periph/tim_f0_f4.h ****    template<Periph, class Pin_> static constexpr Channel channel();
 113:mculib3/src/periph/tim_f0_f4.h ****    template<Channel>            static constexpr EnableMask enable_mask();
 114:mculib3/src/periph/tim_f0_f4.h **** 
 115:mculib3/src/periph/tim_f0_f4.h ****    template <Periph tim, class Pin_> static void pin_static_assert();
 116:mculib3/src/periph/tim_f0_f4.h **** };
 117:mculib3/src/periph/tim_f0_f4.h **** 
 118:mculib3/src/periph/tim_f0_f4.h **** 
 119:mculib3/src/periph/tim_f0_f4.h **** 
 120:mculib3/src/periph/tim_f0_f4.h **** 
 121:mculib3/src/periph/tim_f0_f4.h **** 
 122:mculib3/src/periph/tim_f0_f4.h **** 
 123:mculib3/src/periph/tim_f0_f4.h **** 
 124:mculib3/src/periph/tim_f0_f4.h **** 
 125:mculib3/src/periph/tim_f0_f4.h **** 
 126:mculib3/src/periph/tim_f0_f4.h **** 
 127:mculib3/src/periph/tim_f0_f4.h **** 
 128:mculib3/src/periph/tim_f0_f4.h **** 
 129:mculib3/src/periph/tim_f0_f4.h **** 
 130:mculib3/src/periph/tim_f0_f4.h **** 
 131:mculib3/src/periph/tim_f0_f4.h **** 
 132:mculib3/src/periph/tim_f0_f4.h **** 
 133:mculib3/src/periph/tim_f0_f4.h **** 
ARM GAS  /tmp/cc5K8h45.s 			page 61


 134:mculib3/src/periph/tim_f0_f4.h **** 
 135:mculib3/src/periph/tim_f0_f4.h **** 
 136:mculib3/src/periph/tim_f0_f4.h **** 
 137:mculib3/src/periph/tim_f0_f4.h **** 
 138:mculib3/src/periph/tim_f0_f4.h **** 
 139:mculib3/src/periph/tim_f0_f4.h **** #if not defined(USE_MOCK_TIM)
 140:mculib3/src/periph/tim_f0_f4.h **** SFINAE(TIM1 , TIM) make_reference() { return *reinterpret_cast<TIM*>(TIM1_BASE);  }
 141:mculib3/src/periph/tim_f0_f4.h **** SFINAE(TIM3 , TIM) make_reference() { return *reinterpret_cast<TIM*>(TIM3_BASE);  }
 142:mculib3/src/periph/tim_f0_f4.h **** SFINAE(TIM14, TIM) make_reference() { return *reinterpret_cast<TIM*>(TIM14_BASE); }
 143:mculib3/src/periph/tim_f0_f4.h **** #if defined(STM32F0)
 144:mculib3/src/periph/tim_f0_f4.h **** SFINAE(TIM16, TIM) make_reference() { return *reinterpret_cast<TIM*>(TIM16_BASE); }
 145:mculib3/src/periph/tim_f0_f4.h **** SFINAE(TIM17, TIM) make_reference() { return *reinterpret_cast<TIM*>(TIM17_BASE); }
 146:mculib3/src/periph/tim_f0_f4.h **** #elif defined(STM32F4)
 147:mculib3/src/periph/tim_f0_f4.h **** SFINAE(TIM2 , TIM) make_reference() { return *reinterpret_cast<TIM*>(TIM2_BASE);  }
 148:mculib3/src/periph/tim_f0_f4.h **** SFINAE(TIM4 , TIM) make_reference() { return *reinterpret_cast<TIM*>(TIM4_BASE);  }
 149:mculib3/src/periph/tim_f0_f4.h **** SFINAE(TIM8 , TIM) make_reference() { return *reinterpret_cast<TIM*>(TIM8_BASE);  }
 150:mculib3/src/periph/tim_f0_f4.h **** #endif
 151:mculib3/src/periph/tim_f0_f4.h **** #endif
 152:mculib3/src/periph/tim_f0_f4.h **** 
 153:mculib3/src/periph/tim_f0_f4.h **** template<Periph p, class Pin_> constexpr PinMode TIM::pin_mode()
 154:mculib3/src/periph/tim_f0_f4.h **** {
 155:mculib3/src/periph/tim_f0_f4.h **** #if defined(STM32F0)
 156:mculib3/src/periph/tim_f0_f4.h ****    if      constexpr (p == Periph::TIM1) {
 157:mculib3/src/periph/tim_f0_f4.h ****       if      constexpr (std::is_same_v<Pin_,PA6 >) return PinMode::Alternate_2;
 158:mculib3/src/periph/tim_f0_f4.h ****       else if constexpr (std::is_same_v<Pin_,PA7 >) return PinMode::Alternate_2;
 159:mculib3/src/periph/tim_f0_f4.h ****       else if constexpr (std::is_same_v<Pin_,PA8 >) return PinMode::Alternate_2;
 160:mculib3/src/periph/tim_f0_f4.h ****       else if constexpr (std::is_same_v<Pin_,PA9 >) return PinMode::Alternate_2;
 161:mculib3/src/periph/tim_f0_f4.h ****       else if constexpr (std::is_same_v<Pin_,PA10>) return PinMode::Alternate_2;
 162:mculib3/src/periph/tim_f0_f4.h ****       else if constexpr (std::is_same_v<Pin_,PA11>) return PinMode::Alternate_2;
 163:mculib3/src/periph/tim_f0_f4.h ****       else if constexpr (std::is_same_v<Pin_,PA12>) return PinMode::Alternate_2;
 164:mculib3/src/periph/tim_f0_f4.h ****       else if constexpr (std::is_same_v<Pin_,PB0 >) return PinMode::Alternate_2;
 165:mculib3/src/periph/tim_f0_f4.h ****       else if constexpr (std::is_same_v<Pin_,PB1 >) return PinMode::Alternate_2;
 166:mculib3/src/periph/tim_f0_f4.h ****       else if constexpr (std::is_same_v<Pin_,PB12>) return PinMode::Alternate_2;
 167:mculib3/src/periph/tim_f0_f4.h ****       else if constexpr (std::is_same_v<Pin_,PB13>) return PinMode::Alternate_2;
 168:mculib3/src/periph/tim_f0_f4.h ****       else if constexpr (std::is_same_v<Pin_,PB14>) return PinMode::Alternate_2;
 169:mculib3/src/periph/tim_f0_f4.h ****       else if constexpr (std::is_same_v<Pin_,PB15>) return PinMode::Alternate_2;
 170:mculib3/src/periph/tim_f0_f4.h ****       else return PinMode::Input;
 171:mculib3/src/periph/tim_f0_f4.h **** 
 172:mculib3/src/periph/tim_f0_f4.h ****    } else if constexpr (p == Periph::TIM3) {
 173:mculib3/src/periph/tim_f0_f4.h ****       if      constexpr (std::is_same_v<Pin_,PA6>) return PinMode::Alternate_1;
 174:mculib3/src/periph/tim_f0_f4.h ****       else if constexpr (std::is_same_v<Pin_,PB4>) return PinMode::Alternate_1;
 175:mculib3/src/periph/tim_f0_f4.h ****       else if constexpr (std::is_same_v<Pin_,PC6>) return PinMode::Alternate_0;
 176:mculib3/src/periph/tim_f0_f4.h ****       else if constexpr (std::is_same_v<Pin_,PA7>) return PinMode::Alternate_1;
 177:mculib3/src/periph/tim_f0_f4.h ****       else if constexpr (std::is_same_v<Pin_,PB5>) return PinMode::Alternate_1;
 178:mculib3/src/periph/tim_f0_f4.h ****       else if constexpr (std::is_same_v<Pin_,PC7>) return PinMode::Alternate_0;
 179:mculib3/src/periph/tim_f0_f4.h ****       else if constexpr (std::is_same_v<Pin_,PB0>) return PinMode::Alternate_1;
 180:mculib3/src/periph/tim_f0_f4.h ****       else if constexpr (std::is_same_v<Pin_,PC8>) return PinMode::Alternate_0;
 181:mculib3/src/periph/tim_f0_f4.h ****       else if constexpr (std::is_same_v<Pin_,PB1>) return PinMode::Alternate_1;
 182:mculib3/src/periph/tim_f0_f4.h ****       else if constexpr (std::is_same_v<Pin_,PC9>) return PinMode::Alternate_0;
 183:mculib3/src/periph/tim_f0_f4.h ****       else return PinMode::Input;
 184:mculib3/src/periph/tim_f0_f4.h **** 
 185:mculib3/src/periph/tim_f0_f4.h ****    } else if constexpr (p == Periph::TIM14) {
 186:mculib3/src/periph/tim_f0_f4.h ****       if      constexpr (std::is_same_v<Pin_,PA4>) return PinMode::Alternate_4;
 187:mculib3/src/periph/tim_f0_f4.h ****       else if constexpr (std::is_same_v<Pin_,PA7>) return PinMode::Alternate_4;
 188:mculib3/src/periph/tim_f0_f4.h ****       else if constexpr (std::is_same_v<Pin_,PB1>) return PinMode::Alternate_0;
 189:mculib3/src/periph/tim_f0_f4.h ****       else return PinMode::Input;
 190:mculib3/src/periph/tim_f0_f4.h **** 
ARM GAS  /tmp/cc5K8h45.s 			page 62


 191:mculib3/src/periph/tim_f0_f4.h ****    } else if constexpr (p == Periph::TIM16) {
 192:mculib3/src/periph/tim_f0_f4.h ****       if      constexpr (std::is_same_v<Pin_,PA6>) return PinMode::Alternate_5;
 193:mculib3/src/periph/tim_f0_f4.h ****       else if constexpr (std::is_same_v<Pin_,PB8>) return PinMode::Alternate_2;
 194:mculib3/src/periph/tim_f0_f4.h ****       else return PinMode::Input;
 195:mculib3/src/periph/tim_f0_f4.h **** 
 196:mculib3/src/periph/tim_f0_f4.h ****    } else if constexpr (p == Periph::TIM17) {
 197:mculib3/src/periph/tim_f0_f4.h ****       if      constexpr (std::is_same_v<Pin_,PA7>) return PinMode::Alternate_5;
 198:mculib3/src/periph/tim_f0_f4.h ****       else if constexpr (std::is_same_v<Pin_,PB9>) return PinMode::Alternate_2;
 199:mculib3/src/periph/tim_f0_f4.h ****       else return PinMode::Input;
 200:mculib3/src/periph/tim_f0_f4.h ****    } else {
 201:mculib3/src/periph/tim_f0_f4.h ****       return PinMode::Input;
 202:mculib3/src/periph/tim_f0_f4.h ****    }
 203:mculib3/src/periph/tim_f0_f4.h **** 
 204:mculib3/src/periph/tim_f0_f4.h **** #elif defined(STM32F4)
 205:mculib3/src/periph/tim_f0_f4.h ****    if      constexpr (p == Periph::TIM2) {
 206:mculib3/src/periph/tim_f0_f4.h ****       if      constexpr (std::is_same_v<Pin_,PA0 >) return PinMode::Alternate_1;
 207:mculib3/src/periph/tim_f0_f4.h ****       else if constexpr (std::is_same_v<Pin_,PA1 >) return PinMode::Alternate_1;
 208:mculib3/src/periph/tim_f0_f4.h ****       else if constexpr (std::is_same_v<Pin_,PA2 >) return PinMode::Alternate_1;
 209:mculib3/src/periph/tim_f0_f4.h ****       else if constexpr (std::is_same_v<Pin_,PA3 >) return PinMode::Alternate_1;
 210:mculib3/src/periph/tim_f0_f4.h ****       else if constexpr (std::is_same_v<Pin_,PA5 >) return PinMode::Alternate_1;
 211:mculib3/src/periph/tim_f0_f4.h ****       else if constexpr (std::is_same_v<Pin_,PA15>) return PinMode::Alternate_1;
 212:mculib3/src/periph/tim_f0_f4.h ****       else if constexpr (std::is_same_v<Pin_,PB3 >) return PinMode::Alternate_1;
 213:mculib3/src/periph/tim_f0_f4.h ****       else if constexpr (std::is_same_v<Pin_,PB10>) return PinMode::Alternate_1;
 214:mculib3/src/periph/tim_f0_f4.h ****       else if constexpr (std::is_same_v<Pin_,PB11>) return PinMode::Alternate_1;
 215:mculib3/src/periph/tim_f0_f4.h ****       else return PinMode::Input;
 216:mculib3/src/periph/tim_f0_f4.h **** 
 217:mculib3/src/periph/tim_f0_f4.h ****    } else if constexpr (p == Periph::TIM3) {
 218:mculib3/src/periph/tim_f0_f4.h ****       if      constexpr (std::is_same_v<Pin_,PA6>) return PinMode::Alternate_2;
 219:mculib3/src/periph/tim_f0_f4.h ****       else if constexpr (std::is_same_v<Pin_,PA7>) return PinMode::Alternate_2;
 220:mculib3/src/periph/tim_f0_f4.h ****       else if constexpr (std::is_same_v<Pin_,PB0>) return PinMode::Alternate_2;
 221:mculib3/src/periph/tim_f0_f4.h ****       else if constexpr (std::is_same_v<Pin_,PB1>) return PinMode::Alternate_2;
 222:mculib3/src/periph/tim_f0_f4.h ****       else if constexpr (std::is_same_v<Pin_,PB4>) return PinMode::Alternate_2;
 223:mculib3/src/periph/tim_f0_f4.h ****       else if constexpr (std::is_same_v<Pin_,PB5>) return PinMode::Alternate_2;
 224:mculib3/src/periph/tim_f0_f4.h ****       else if constexpr (std::is_same_v<Pin_,PC6>) return PinMode::Alternate_2;
 225:mculib3/src/periph/tim_f0_f4.h ****       else if constexpr (std::is_same_v<Pin_,PC7>) return PinMode::Alternate_2;
 226:mculib3/src/periph/tim_f0_f4.h ****       else if constexpr (std::is_same_v<Pin_,PC8>) return PinMode::Alternate_2;
 227:mculib3/src/periph/tim_f0_f4.h ****       else if constexpr (std::is_same_v<Pin_,PC9>) return PinMode::Alternate_2;
 228:mculib3/src/periph/tim_f0_f4.h ****       else if constexpr (std::is_same_v<Pin_,PD2>) return PinMode::Alternate_2;
 229:mculib3/src/periph/tim_f0_f4.h ****       else return PinMode::Input;
 230:mculib3/src/periph/tim_f0_f4.h **** 
 231:mculib3/src/periph/tim_f0_f4.h ****    } else if constexpr (p == Periph::TIM4) {
 232:mculib3/src/periph/tim_f0_f4.h ****       if      constexpr (std::is_same_v<Pin_,PD12>) return PinMode::Alternate_2;
 233:mculib3/src/periph/tim_f0_f4.h ****       else if constexpr (std::is_same_v<Pin_,PD13>) return PinMode::Alternate_2;
 234:mculib3/src/periph/tim_f0_f4.h ****       else if constexpr (std::is_same_v<Pin_,PD14>) return PinMode::Alternate_2;
 235:mculib3/src/periph/tim_f0_f4.h ****       else if constexpr (std::is_same_v<Pin_,PD15>) return PinMode::Alternate_2;
 236:mculib3/src/periph/tim_f0_f4.h ****    
 237:mculib3/src/periph/tim_f0_f4.h ****    } else if constexpr (p == Periph::TIM8) {
 238:mculib3/src/periph/tim_f0_f4.h ****       if      constexpr (std::is_same_v<Pin_,PC6>) return PinMode::Alternate_3;
 239:mculib3/src/periph/tim_f0_f4.h ****       else if constexpr (std::is_same_v<Pin_,PC7>) return PinMode::Alternate_3;
 240:mculib3/src/periph/tim_f0_f4.h ****       else if constexpr (std::is_same_v<Pin_,PC8>) return PinMode::Alternate_3;
 241:mculib3/src/periph/tim_f0_f4.h ****       else if constexpr (std::is_same_v<Pin_,PC9>) return PinMode::Alternate_3;
 242:mculib3/src/periph/tim_f0_f4.h ****    
 243:mculib3/src/periph/tim_f0_f4.h ****    } else {
 244:mculib3/src/periph/tim_f0_f4.h ****       return PinMode::Input;
 245:mculib3/src/periph/tim_f0_f4.h ****    }
 246:mculib3/src/periph/tim_f0_f4.h **** #endif
 247:mculib3/src/periph/tim_f0_f4.h **** }
ARM GAS  /tmp/cc5K8h45.s 			page 63


 248:mculib3/src/periph/tim_f0_f4.h **** 
 249:mculib3/src/periph/tim_f0_f4.h **** template<TIM::Channel c> constexpr TIM::EnableMask TIM::enable_mask()
 250:mculib3/src/periph/tim_f0_f4.h **** {
 251:mculib3/src/periph/tim_f0_f4.h ****    if      constexpr (c == Channel::_1) return TIM::EnableMask::ch1;
 252:mculib3/src/periph/tim_f0_f4.h ****    else if constexpr (c == Channel::_2) return TIM::EnableMask::ch2;
 253:mculib3/src/periph/tim_f0_f4.h ****    else if constexpr (c == Channel::_3) return TIM::EnableMask::ch3;
 254:mculib3/src/periph/tim_f0_f4.h ****    else if constexpr (c == Channel::_4) return TIM::EnableMask::ch4;
 255:mculib3/src/periph/tim_f0_f4.h **** }
 256:mculib3/src/periph/tim_f0_f4.h **** 
 257:mculib3/src/periph/tim_f0_f4.h **** // template<TIM::Channel c> constexpr TIM::InterruptMask TIM::interrupt_mask()
 258:mculib3/src/periph/tim_f0_f4.h **** // {
 259:mculib3/src/periph/tim_f0_f4.h **** //    if      constexpr (c == Channel::_1) return TIM::InterruptMask::ch1;
 260:mculib3/src/periph/tim_f0_f4.h **** //    else if constexpr (c == Channel::_2) return TIM::InterruptMask::ch2;
 261:mculib3/src/periph/tim_f0_f4.h **** //    else if constexpr (c == Channel::_3) return TIM::InterruptMask::ch3;
 262:mculib3/src/periph/tim_f0_f4.h **** //    else if constexpr (c == Channel::_4) return TIM::InterruptMask::ch4;
 263:mculib3/src/periph/tim_f0_f4.h **** // }
 264:mculib3/src/periph/tim_f0_f4.h **** 
 265:mculib3/src/periph/tim_f0_f4.h **** template<Periph p, class Pin_> constexpr TIM::Channel TIM::channel()
 266:mculib3/src/periph/tim_f0_f4.h **** {
 267:mculib3/src/periph/tim_f0_f4.h **** #if defined(STM32F0)
 268:mculib3/src/periph/tim_f0_f4.h ****    if      constexpr (p == Periph::TIM1) {
 269:mculib3/src/periph/tim_f0_f4.h ****       if      constexpr (std::is_same_v<Pin_,PA8 >) return Channel::_1;
 270:mculib3/src/periph/tim_f0_f4.h ****       else if constexpr (std::is_same_v<Pin_,PA9 >) return Channel::_2;
 271:mculib3/src/periph/tim_f0_f4.h ****       else if constexpr (std::is_same_v<Pin_,PA10>) return Channel::_3;
 272:mculib3/src/periph/tim_f0_f4.h ****       else if constexpr (std::is_same_v<Pin_,PA11>) return Channel::_4;
 273:mculib3/src/periph/tim_f0_f4.h ****       else if constexpr (std::is_same_v<Pin_,PB13>) return Channel::_1;
 274:mculib3/src/periph/tim_f0_f4.h ****       else if constexpr (std::is_same_v<Pin_,PB14>) return Channel::_2;
 275:mculib3/src/periph/tim_f0_f4.h ****       else if constexpr (std::is_same_v<Pin_,PB15>) return Channel::_3;
 276:mculib3/src/periph/tim_f0_f4.h ****       else return Channel::error;
 277:mculib3/src/periph/tim_f0_f4.h **** 
 278:mculib3/src/periph/tim_f0_f4.h ****    } else if constexpr (p == Periph::TIM3) {
 279:mculib3/src/periph/tim_f0_f4.h ****       if      constexpr (std::is_same_v<Pin_,PA6>) return Channel::_1;
 280:mculib3/src/periph/tim_f0_f4.h ****       else if constexpr (std::is_same_v<Pin_,PA7>) return Channel::_2;
 281:mculib3/src/periph/tim_f0_f4.h ****       else if constexpr (std::is_same_v<Pin_,PB0>) return Channel::_3;
 282:mculib3/src/periph/tim_f0_f4.h ****       else if constexpr (std::is_same_v<Pin_,PB1>) return Channel::_4;
 283:mculib3/src/periph/tim_f0_f4.h ****       else if constexpr (std::is_same_v<Pin_,PB4>) return Channel::_1;
 284:mculib3/src/periph/tim_f0_f4.h ****       else if constexpr (std::is_same_v<Pin_,PB5>) return Channel::_2;
 285:mculib3/src/periph/tim_f0_f4.h ****       else if constexpr (std::is_same_v<Pin_,PC6>) return Channel::_1;
 286:mculib3/src/periph/tim_f0_f4.h ****       else if constexpr (std::is_same_v<Pin_,PC7>) return Channel::_2;
 287:mculib3/src/periph/tim_f0_f4.h ****       else if constexpr (std::is_same_v<Pin_,PC8>) return Channel::_3;
 288:mculib3/src/periph/tim_f0_f4.h ****       else if constexpr (std::is_same_v<Pin_,PC9>) return Channel::_4;
 289:mculib3/src/periph/tim_f0_f4.h ****       else return Channel::error;
 290:mculib3/src/periph/tim_f0_f4.h **** 
 291:mculib3/src/periph/tim_f0_f4.h ****    } else if constexpr (p == Periph::TIM14) {
 292:mculib3/src/periph/tim_f0_f4.h ****       if      constexpr (std::is_same_v<Pin_,PA4>) return Channel::_1;
 293:mculib3/src/periph/tim_f0_f4.h ****       else if constexpr (std::is_same_v<Pin_,PA7>) return Channel::_2;
 294:mculib3/src/periph/tim_f0_f4.h ****       else if constexpr (std::is_same_v<Pin_,PB1>) return Channel::_1;
 295:mculib3/src/periph/tim_f0_f4.h ****       else return Channel::error;
 296:mculib3/src/periph/tim_f0_f4.h **** 
 297:mculib3/src/periph/tim_f0_f4.h ****    } else if constexpr (p == Periph::TIM16) {
 298:mculib3/src/periph/tim_f0_f4.h ****       if      constexpr (std::is_same_v<Pin_,PA6>) return Channel::_1;
 299:mculib3/src/periph/tim_f0_f4.h ****       else return Channel::error;
 300:mculib3/src/periph/tim_f0_f4.h **** 
 301:mculib3/src/periph/tim_f0_f4.h ****    } else if constexpr (p == Periph::TIM17) {
 302:mculib3/src/periph/tim_f0_f4.h ****       if      constexpr (std::is_same_v<Pin_,PA7>) return Channel::_1;
 303:mculib3/src/periph/tim_f0_f4.h ****       else return Channel::error;
 304:mculib3/src/periph/tim_f0_f4.h ****    } else {
ARM GAS  /tmp/cc5K8h45.s 			page 64


 305:mculib3/src/periph/tim_f0_f4.h ****       return Channel::error;
 306:mculib3/src/periph/tim_f0_f4.h ****    }
 307:mculib3/src/periph/tim_f0_f4.h **** 
 308:mculib3/src/periph/tim_f0_f4.h **** #elif defined(STM32F4)
 309:mculib3/src/periph/tim_f0_f4.h ****    if      constexpr (p == Periph::TIM2) {
 310:mculib3/src/periph/tim_f0_f4.h ****       if      constexpr (std::is_same_v<Pin_,PA0 >) return Channel::_1;
 311:mculib3/src/periph/tim_f0_f4.h ****       else if constexpr (std::is_same_v<Pin_,PA1 >) return Channel::_2;
 312:mculib3/src/periph/tim_f0_f4.h ****       else if constexpr (std::is_same_v<Pin_,PA2 >) return Channel::_3;
 313:mculib3/src/periph/tim_f0_f4.h ****       else if constexpr (std::is_same_v<Pin_,PA3 >) return Channel::_4;
 314:mculib3/src/periph/tim_f0_f4.h ****       else if constexpr (std::is_same_v<Pin_,PA5 >) return Channel::_1;
 315:mculib3/src/periph/tim_f0_f4.h ****       else if constexpr (std::is_same_v<Pin_,PA15>) return Channel::_1;
 316:mculib3/src/periph/tim_f0_f4.h ****       else if constexpr (std::is_same_v<Pin_,PB3 >) return Channel::_2;
 317:mculib3/src/periph/tim_f0_f4.h ****       else if constexpr (std::is_same_v<Pin_,PB10>) return Channel::_3;
 318:mculib3/src/periph/tim_f0_f4.h ****       else if constexpr (std::is_same_v<Pin_,PB11>) return Channel::_4;
 319:mculib3/src/periph/tim_f0_f4.h ****       else return Channel::error;
 320:mculib3/src/periph/tim_f0_f4.h **** 
 321:mculib3/src/periph/tim_f0_f4.h ****    } else if constexpr (p == Periph::TIM3) {
 322:mculib3/src/periph/tim_f0_f4.h ****       if      constexpr (std::is_same_v<Pin_,PA6>) return Channel::_1;
 323:mculib3/src/periph/tim_f0_f4.h ****       else if constexpr (std::is_same_v<Pin_,PA7>) return Channel::_2;
 324:mculib3/src/periph/tim_f0_f4.h ****       else if constexpr (std::is_same_v<Pin_,PB0>) return Channel::_3;
 325:mculib3/src/periph/tim_f0_f4.h ****       else if constexpr (std::is_same_v<Pin_,PB1>) return Channel::_4;
 326:mculib3/src/periph/tim_f0_f4.h ****       else if constexpr (std::is_same_v<Pin_,PB4>) return Channel::_1;
 327:mculib3/src/periph/tim_f0_f4.h ****       else if constexpr (std::is_same_v<Pin_,PB5>) return Channel::_2;
 328:mculib3/src/periph/tim_f0_f4.h ****       else if constexpr (std::is_same_v<Pin_,PC6>) return Channel::_1;
 329:mculib3/src/periph/tim_f0_f4.h ****       else if constexpr (std::is_same_v<Pin_,PC7>) return Channel::_2;
 330:mculib3/src/periph/tim_f0_f4.h ****       else if constexpr (std::is_same_v<Pin_,PC8>) return Channel::_3;
 331:mculib3/src/periph/tim_f0_f4.h ****       else if constexpr (std::is_same_v<Pin_,PC9>) return Channel::_4;
 332:mculib3/src/periph/tim_f0_f4.h ****       else return Channel::error;
 333:mculib3/src/periph/tim_f0_f4.h **** 
 334:mculib3/src/periph/tim_f0_f4.h ****    } else if constexpr (p == Periph::TIM4) {
 335:mculib3/src/periph/tim_f0_f4.h ****       if      constexpr (std::is_same_v<Pin_,PD12>) return Channel::_1;
 336:mculib3/src/periph/tim_f0_f4.h ****       else if constexpr (std::is_same_v<Pin_,PD13>) return Channel::_2;
 337:mculib3/src/periph/tim_f0_f4.h ****       else if constexpr (std::is_same_v<Pin_,PD14>) return Channel::_3;
 338:mculib3/src/periph/tim_f0_f4.h ****       else if constexpr (std::is_same_v<Pin_,PD15>) return Channel::_4;
 339:mculib3/src/periph/tim_f0_f4.h ****    
 340:mculib3/src/periph/tim_f0_f4.h ****    } else if constexpr (p == Periph::TIM8) {
 341:mculib3/src/periph/tim_f0_f4.h ****       if      constexpr (std::is_same_v<Pin_,PC6>) return Channel::_1;
 342:mculib3/src/periph/tim_f0_f4.h ****       else if constexpr (std::is_same_v<Pin_,PC7>) return Channel::_2;
 343:mculib3/src/periph/tim_f0_f4.h ****       else if constexpr (std::is_same_v<Pin_,PC8>) return Channel::_3;
 344:mculib3/src/periph/tim_f0_f4.h ****       else if constexpr (std::is_same_v<Pin_,PC9>) return Channel::_4;
 345:mculib3/src/periph/tim_f0_f4.h ****    } else {
 346:mculib3/src/periph/tim_f0_f4.h ****       return Channel::error;
 347:mculib3/src/periph/tim_f0_f4.h ****    }
 348:mculib3/src/periph/tim_f0_f4.h **** #endif
 349:mculib3/src/periph/tim_f0_f4.h **** }
 350:mculib3/src/periph/tim_f0_f4.h **** 
 351:mculib3/src/periph/tim_f0_f4.h **** template<TIM::Channel c> TIM& TIM::set (Polarity v)
 352:mculib3/src/periph/tim_f0_f4.h **** {
 353:mculib3/src/periph/tim_f0_f4.h ****    if constexpr (c == Channel::_1) {
 354:mculib3/src/periph/tim_f0_f4.h ****       if (v == Polarity::rising) {
 355:mculib3/src/periph/tim_f0_f4.h ****          CCER.CC1P  = false;
 356:mculib3/src/periph/tim_f0_f4.h ****          CCER.CC1NP = false;
 357:mculib3/src/periph/tim_f0_f4.h ****       } else if (v == Polarity::falling) {
 358:mculib3/src/periph/tim_f0_f4.h ****          CCER.CC1P  = true;
 359:mculib3/src/periph/tim_f0_f4.h ****          CCER.CC1NP = false;
 360:mculib3/src/periph/tim_f0_f4.h ****       } else if (v == Polarity::both) {
 361:mculib3/src/periph/tim_f0_f4.h ****          CCER.CC1P  = true;
ARM GAS  /tmp/cc5K8h45.s 			page 65


 362:mculib3/src/periph/tim_f0_f4.h ****          CCER.CC1NP = true;
 363:mculib3/src/periph/tim_f0_f4.h ****       }
 364:mculib3/src/periph/tim_f0_f4.h ****       return *this;
 365:mculib3/src/periph/tim_f0_f4.h ****    } else if constexpr (c == Channel::_2) {
 366:mculib3/src/periph/tim_f0_f4.h ****       if (v == Polarity::rising) {
 367:mculib3/src/periph/tim_f0_f4.h ****          CCER.CC2P  = false;
 368:mculib3/src/periph/tim_f0_f4.h ****          CCER.CC2NP = false;
 369:mculib3/src/periph/tim_f0_f4.h ****       } else if (v == Polarity::falling) {
 370:mculib3/src/periph/tim_f0_f4.h ****          CCER.CC2P  = true;
 371:mculib3/src/periph/tim_f0_f4.h ****          CCER.CC2NP = false;
 372:mculib3/src/periph/tim_f0_f4.h ****       } else if (v == Polarity::both) {
 373:mculib3/src/periph/tim_f0_f4.h ****          CCER.CC2P  = true;
 374:mculib3/src/periph/tim_f0_f4.h ****          CCER.CC2NP = true;
 375:mculib3/src/periph/tim_f0_f4.h ****       }
 376:mculib3/src/periph/tim_f0_f4.h ****       return *this;
 377:mculib3/src/periph/tim_f0_f4.h ****    } else if constexpr (c == Channel::_3) {
 378:mculib3/src/periph/tim_f0_f4.h ****       if (v == Polarity::rising) {
 379:mculib3/src/periph/tim_f0_f4.h ****          CCER.CC3P  = false;
 380:mculib3/src/periph/tim_f0_f4.h ****          CCER.CC3NP = false;
 381:mculib3/src/periph/tim_f0_f4.h ****       } else if (v == Polarity::falling) {
 382:mculib3/src/periph/tim_f0_f4.h ****          CCER.CC3P  = true;
 383:mculib3/src/periph/tim_f0_f4.h ****          CCER.CC3NP = false;
 384:mculib3/src/periph/tim_f0_f4.h ****       } else if (v == Polarity::both) {
 385:mculib3/src/periph/tim_f0_f4.h ****          CCER.CC3P  = true;
 386:mculib3/src/periph/tim_f0_f4.h ****          CCER.CC3NP = true;
 387:mculib3/src/periph/tim_f0_f4.h ****       }
 388:mculib3/src/periph/tim_f0_f4.h ****       return *this;
 389:mculib3/src/periph/tim_f0_f4.h ****    } else if constexpr (c == Channel::_4) {
 390:mculib3/src/periph/tim_f0_f4.h ****       if (v == Polarity::rising) {
 391:mculib3/src/periph/tim_f0_f4.h ****          CCER.CC4P  = false;
 392:mculib3/src/periph/tim_f0_f4.h ****          CCER.CC4NP = false;
 393:mculib3/src/periph/tim_f0_f4.h ****       } else if (v == Polarity::falling) {
 394:mculib3/src/periph/tim_f0_f4.h ****          CCER.CC4P  = true;
 395:mculib3/src/periph/tim_f0_f4.h ****          CCER.CC4NP = false;
 396:mculib3/src/periph/tim_f0_f4.h ****       } else if (v == Polarity::both) {
 397:mculib3/src/periph/tim_f0_f4.h ****          CCER.CC4P  = true;
 398:mculib3/src/periph/tim_f0_f4.h ****          CCER.CC4NP = true;
 399:mculib3/src/periph/tim_f0_f4.h ****       }
 400:mculib3/src/periph/tim_f0_f4.h ****       return *this;
 401:mculib3/src/periph/tim_f0_f4.h ****    }
 402:mculib3/src/periph/tim_f0_f4.h **** }
 403:mculib3/src/periph/tim_f0_f4.h **** 
 404:mculib3/src/periph/tim_f0_f4.h **** template<TIM::Channel c> TIM& TIM::set_trigger()
 405:mculib3/src/periph/tim_f0_f4.h **** {
 406:mculib3/src/periph/tim_f0_f4.h ****    if      constexpr (c == Channel::_1) SMCR.TS = TIM::Trigger::FiltrTI1;
 407:mculib3/src/periph/tim_f0_f4.h ****    else if constexpr (c == Channel::_2) SMCR.TS = TIM::Trigger::FiltrTI2;
 408:mculib3/src/periph/tim_f0_f4.h ****    return *this;
 409:mculib3/src/periph/tim_f0_f4.h **** }
 410:mculib3/src/periph/tim_f0_f4.h **** template<TIM::Channel c> TIM& TIM::set (Filter f)
 411:mculib3/src/periph/tim_f0_f4.h **** {
 412:mculib3/src/periph/tim_f0_f4.h ****    if      constexpr (c == Channel::_1) CCMR.input.IC1F = f;
 413:mculib3/src/periph/tim_f0_f4.h ****    else if constexpr (c == Channel::_2) CCMR.input.IC2F = f;
 414:mculib3/src/periph/tim_f0_f4.h ****    else if constexpr (c == Channel::_3) CCMR.input.IC3F = f;
 415:mculib3/src/periph/tim_f0_f4.h ****    else if constexpr (c == Channel::_4) CCMR.input.IC4F = f;
 416:mculib3/src/periph/tim_f0_f4.h ****    return *this;
 417:mculib3/src/periph/tim_f0_f4.h **** }
 418:mculib3/src/periph/tim_f0_f4.h **** 
ARM GAS  /tmp/cc5K8h45.s 			page 66


 419:mculib3/src/periph/tim_f0_f4.h **** template<TIM::Channel c> TIM& TIM::set (CompareMode v)
 420:mculib3/src/periph/tim_f0_f4.h **** {
 421:mculib3/src/periph/tim_f0_f4.h ****    if      constexpr (c == Channel::_1) CCMR.output.OC1M = v;
 422:mculib3/src/periph/tim_f0_f4.h ****    else if constexpr (c == Channel::_2) CCMR.output.OC2M = v;
 423:mculib3/src/periph/tim_f0_f4.h ****    else if constexpr (c == Channel::_3) CCMR.output.OC3M = v;
 424:mculib3/src/periph/tim_f0_f4.h ****    else if constexpr (c == Channel::_4) CCMR.output.OC4M = v;
 425:mculib3/src/periph/tim_f0_f4.h ****    return *this;
 426:mculib3/src/periph/tim_f0_f4.h **** }
 427:mculib3/src/periph/tim_f0_f4.h **** 
 428:mculib3/src/periph/tim_f0_f4.h **** template<TIM::Channel c> TIM& TIM::set (SelectionCompareMode v)
 429:mculib3/src/periph/tim_f0_f4.h **** {
 430:mculib3/src/periph/tim_f0_f4.h ****    if      constexpr (c == Channel::_1) CCMR.output.CC1S = v;
 431:mculib3/src/periph/tim_f0_f4.h ****    else if constexpr (c == Channel::_2) CCMR.output.CC2S = v;
 432:mculib3/src/periph/tim_f0_f4.h ****    else if constexpr (c == Channel::_3) CCMR.output.CC3S = v;
 433:mculib3/src/periph/tim_f0_f4.h ****    else if constexpr (c == Channel::_4) CCMR.output.CC4S = v;
 434:mculib3/src/periph/tim_f0_f4.h ****    return *this;
 435:mculib3/src/periph/tim_f0_f4.h **** }
 436:mculib3/src/periph/tim_f0_f4.h **** 
 437:mculib3/src/periph/tim_f0_f4.h **** template<TIM::Channel c> TIM& TIM::preload_enable()
 438:mculib3/src/periph/tim_f0_f4.h **** {
 439:mculib3/src/periph/tim_f0_f4.h ****    if      constexpr (c == Channel::_1) CCMR.output.OC1PE = true;
 440:mculib3/src/periph/tim_f0_f4.h ****    else if constexpr (c == Channel::_2) CCMR.output.OC2PE = true;
 441:mculib3/src/periph/tim_f0_f4.h ****    else if constexpr (c == Channel::_3) CCMR.output.OC3PE = true;
 442:mculib3/src/periph/tim_f0_f4.h ****    else if constexpr (c == Channel::_4) CCMR.output.OC4PE = true;
 443:mculib3/src/periph/tim_f0_f4.h ****    return *this;
 444:mculib3/src/periph/tim_f0_f4.h **** }
 445:mculib3/src/periph/tim_f0_f4.h **** 
 446:mculib3/src/periph/tim_f0_f4.h **** template<TIM::Channel c> TIM& TIM::preload_disable()
 447:mculib3/src/periph/tim_f0_f4.h **** {
 448:mculib3/src/periph/tim_f0_f4.h ****    if      constexpr (c == Channel::_1) CCMR.output.OC1PE = false;
 449:mculib3/src/periph/tim_f0_f4.h ****    else if constexpr (c == Channel::_2) CCMR.output.OC2PE = false;
 450:mculib3/src/periph/tim_f0_f4.h ****    else if constexpr (c == Channel::_3) CCMR.output.OC3PE = false;
 451:mculib3/src/periph/tim_f0_f4.h ****    else if constexpr (c == Channel::_4) CCMR.output.OC4PE = false;
 452:mculib3/src/periph/tim_f0_f4.h ****    return *this; 
 453:mculib3/src/periph/tim_f0_f4.h **** }
 454:mculib3/src/periph/tim_f0_f4.h **** 
 455:mculib3/src/periph/tim_f0_f4.h **** TIM& TIM::compare_enable(TIM::Channel c)
 456:mculib3/src/periph/tim_f0_f4.h **** {
 1444              		.loc 15 456 1 is_stmt 1 view -0
 1445              		.cfi_startproc
 1446              		@ args = 0, pretend = 0, frame = 0
 1447              		@ frame_needed = 0, uses_anonymous_args = 0
 1448              		@ link register save eliminated.
 457:mculib3/src/periph/tim_f0_f4.h ****    if      (c == Channel::_1) CCER.CC1E = true;
 1449              		.loc 15 457 4 view .LVU320
 1450 0000 0129     		cmp	r1, #1
 1451 0002 03D1     		bne	.L91
 1452              		.loc 15 457 31 discriminator 1 view .LVU321
 1453              		.loc 15 457 41 is_stmt 0 discriminator 1 view .LVU322
 1454 0004 036A     		ldr	r3, [r0, #32]
 1455 0006 1943     		orrs	r1, r3
 1456              	.LVL103:
 1457              		.loc 15 457 41 discriminator 1 view .LVU323
 1458 0008 0162     		str	r1, [r0, #32]
 1459              	.L92:
 458:mculib3/src/periph/tim_f0_f4.h ****    else if (c == Channel::_2) CCER.CC2E = true;
 459:mculib3/src/periph/tim_f0_f4.h ****    else if (c == Channel::_3) CCER.CC3E = true;
ARM GAS  /tmp/cc5K8h45.s 			page 67


 460:mculib3/src/periph/tim_f0_f4.h ****    else if (c == Channel::_4) CCER.CC4E = true;
 461:mculib3/src/periph/tim_f0_f4.h ****    return *this;
 1460              		.loc 15 461 4 is_stmt 1 view .LVU324
 462:mculib3/src/periph/tim_f0_f4.h **** }
 1461              		.loc 15 462 1 is_stmt 0 view .LVU325
 1462              		@ sp needed
 1463 000a 7047     		bx	lr
 1464              	.LVL104:
 1465              	.L91:
 458:mculib3/src/periph/tim_f0_f4.h ****    else if (c == Channel::_2) CCER.CC2E = true;
 1466              		.loc 15 458 9 is_stmt 1 view .LVU326
 1467 000c 0229     		cmp	r1, #2
 1468 000e 04D1     		bne	.L93
 458:mculib3/src/periph/tim_f0_f4.h ****    else if (c == Channel::_2) CCER.CC2E = true;
 1469              		.loc 15 458 31 discriminator 1 view .LVU327
 458:mculib3/src/periph/tim_f0_f4.h ****    else if (c == Channel::_2) CCER.CC2E = true;
 1470              		.loc 15 458 41 is_stmt 0 discriminator 1 view .LVU328
 1471 0010 1023     		movs	r3, #16
 1472 0012 026A     		ldr	r2, [r0, #32]
 1473              	.L95:
 460:mculib3/src/periph/tim_f0_f4.h ****    return *this;
 1474              		.loc 15 460 41 discriminator 1 view .LVU329
 1475 0014 1343     		orrs	r3, r2
 1476 0016 0362     		str	r3, [r0, #32]
 1477 0018 F7E7     		b	.L92
 1478              	.L93:
 459:mculib3/src/periph/tim_f0_f4.h ****    else if (c == Channel::_4) CCER.CC4E = true;
 1479              		.loc 15 459 9 is_stmt 1 view .LVU330
 1480 001a 0329     		cmp	r1, #3
 1481 001c 03D1     		bne	.L94
 459:mculib3/src/periph/tim_f0_f4.h ****    else if (c == Channel::_4) CCER.CC4E = true;
 1482              		.loc 15 459 31 discriminator 1 view .LVU331
 459:mculib3/src/periph/tim_f0_f4.h ****    else if (c == Channel::_4) CCER.CC4E = true;
 1483              		.loc 15 459 41 is_stmt 0 discriminator 1 view .LVU332
 1484 001e 8023     		movs	r3, #128
 1485 0020 026A     		ldr	r2, [r0, #32]
 1486 0022 5B00     		lsls	r3, r3, #1
 1487 0024 F6E7     		b	.L95
 1488              	.L94:
 460:mculib3/src/periph/tim_f0_f4.h ****    return *this;
 1489              		.loc 15 460 9 is_stmt 1 view .LVU333
 1490 0026 0429     		cmp	r1, #4
 1491 0028 EFD1     		bne	.L92
 460:mculib3/src/periph/tim_f0_f4.h ****    return *this;
 1492              		.loc 15 460 31 discriminator 1 view .LVU334
 460:mculib3/src/periph/tim_f0_f4.h ****    return *this;
 1493              		.loc 15 460 41 is_stmt 0 discriminator 1 view .LVU335
 1494 002a 8023     		movs	r3, #128
 1495 002c 026A     		ldr	r2, [r0, #32]
 1496 002e 5B01     		lsls	r3, r3, #5
 1497 0030 F0E7     		b	.L95
 1498              		.cfi_endproc
 1499              	.LFE3769:
 1501              		.section	.text._ZN3mcu3TIM15compare_disableENS0_7ChannelE,"ax",%progbits
 1502              		.align	1
 1503              		.global	_ZN3mcu3TIM15compare_disableENS0_7ChannelE
 1504              		.syntax unified
ARM GAS  /tmp/cc5K8h45.s 			page 68


 1505              		.code	16
 1506              		.thumb_func
 1507              		.fpu softvfp
 1509              	_ZN3mcu3TIM15compare_disableENS0_7ChannelE:
 1510              	.LVL105:
 1511              	.LFB3770:
 463:mculib3/src/periph/tim_f0_f4.h **** 
 464:mculib3/src/periph/tim_f0_f4.h **** TIM& TIM::compare_disable(TIM::Channel c)
 465:mculib3/src/periph/tim_f0_f4.h **** {
 1512              		.loc 15 465 1 is_stmt 1 view -0
 1513              		.cfi_startproc
 1514              		@ args = 0, pretend = 0, frame = 0
 1515              		@ frame_needed = 0, uses_anonymous_args = 0
 1516              		@ link register save eliminated.
 466:mculib3/src/periph/tim_f0_f4.h ****    if      (c == Channel::_1) CCER.CC1E = false;
 1517              		.loc 15 466 4 view .LVU337
 1518 0000 0129     		cmp	r1, #1
 1519 0002 03D1     		bne	.L97
 1520              		.loc 15 466 31 discriminator 1 view .LVU338
 1521              		.loc 15 466 41 is_stmt 0 discriminator 1 view .LVU339
 1522 0004 036A     		ldr	r3, [r0, #32]
 1523 0006 8B43     		bics	r3, r1
 1524              	.L101:
 467:mculib3/src/periph/tim_f0_f4.h ****    else if (c == Channel::_2) CCER.CC2E = false;
 468:mculib3/src/periph/tim_f0_f4.h ****    else if (c == Channel::_3) CCER.CC3E = false;
 469:mculib3/src/periph/tim_f0_f4.h ****    else if (c == Channel::_4) CCER.CC4E = false;
 1525              		.loc 15 469 41 discriminator 1 view .LVU340
 1526 0008 0362     		str	r3, [r0, #32]
 1527              	.L98:
 470:mculib3/src/periph/tim_f0_f4.h ****    return *this;
 1528              		.loc 15 470 4 is_stmt 1 view .LVU341
 471:mculib3/src/periph/tim_f0_f4.h **** }
 1529              		.loc 15 471 1 is_stmt 0 view .LVU342
 1530              		@ sp needed
 1531 000a 7047     		bx	lr
 1532              	.L97:
 467:mculib3/src/periph/tim_f0_f4.h ****    else if (c == Channel::_2) CCER.CC2E = false;
 1533              		.loc 15 467 9 is_stmt 1 view .LVU343
 1534 000c 0229     		cmp	r1, #2
 1535 000e 03D1     		bne	.L99
 467:mculib3/src/periph/tim_f0_f4.h ****    else if (c == Channel::_2) CCER.CC2E = false;
 1536              		.loc 15 467 31 discriminator 1 view .LVU344
 467:mculib3/src/periph/tim_f0_f4.h ****    else if (c == Channel::_2) CCER.CC2E = false;
 1537              		.loc 15 467 41 is_stmt 0 discriminator 1 view .LVU345
 1538 0010 1022     		movs	r2, #16
 1539 0012 036A     		ldr	r3, [r0, #32]
 1540 0014 9343     		bics	r3, r2
 1541 0016 F7E7     		b	.L101
 1542              	.L99:
 468:mculib3/src/periph/tim_f0_f4.h ****    else if (c == Channel::_4) CCER.CC4E = false;
 1543              		.loc 15 468 9 is_stmt 1 view .LVU346
 1544 0018 0329     		cmp	r1, #3
 1545 001a 03D1     		bne	.L100
 468:mculib3/src/periph/tim_f0_f4.h ****    else if (c == Channel::_4) CCER.CC4E = false;
 1546              		.loc 15 468 31 discriminator 1 view .LVU347
 468:mculib3/src/periph/tim_f0_f4.h ****    else if (c == Channel::_4) CCER.CC4E = false;
 1547              		.loc 15 468 41 is_stmt 0 discriminator 1 view .LVU348
ARM GAS  /tmp/cc5K8h45.s 			page 69


 1548 001c 036A     		ldr	r3, [r0, #32]
 1549 001e 044A     		ldr	r2, .L103
 1550              	.L102:
 469:mculib3/src/periph/tim_f0_f4.h ****    return *this;
 1551              		.loc 15 469 41 discriminator 1 view .LVU349
 1552 0020 1340     		ands	r3, r2
 1553 0022 F1E7     		b	.L101
 1554              	.L100:
 469:mculib3/src/periph/tim_f0_f4.h ****    return *this;
 1555              		.loc 15 469 9 is_stmt 1 view .LVU350
 1556 0024 0429     		cmp	r1, #4
 1557 0026 F0D1     		bne	.L98
 469:mculib3/src/periph/tim_f0_f4.h ****    return *this;
 1558              		.loc 15 469 31 discriminator 1 view .LVU351
 469:mculib3/src/periph/tim_f0_f4.h ****    return *this;
 1559              		.loc 15 469 41 is_stmt 0 discriminator 1 view .LVU352
 1560 0028 036A     		ldr	r3, [r0, #32]
 1561 002a 024A     		ldr	r2, .L103+4
 1562 002c F8E7     		b	.L102
 1563              	.L104:
 1564 002e C046     		.align	2
 1565              	.L103:
 1566 0030 FFFEFFFF 		.word	-257
 1567 0034 FFEFFFFF 		.word	-4097
 1568              		.cfi_endproc
 1569              	.LFE3770:
 1571              		.section	.text._ZN3mcu3TIM16interrupt_enableENS0_7ChannelE,"ax",%progbits
 1572              		.align	1
 1573              		.global	_ZN3mcu3TIM16interrupt_enableENS0_7ChannelE
 1574              		.syntax unified
 1575              		.code	16
 1576              		.thumb_func
 1577              		.fpu softvfp
 1579              	_ZN3mcu3TIM16interrupt_enableENS0_7ChannelE:
 1580              	.LVL106:
 1581              	.LFB3773:
 472:mculib3/src/periph/tim_f0_f4.h **** 
 473:mculib3/src/periph/tim_f0_f4.h **** template<TIM::Channel c> TIM& TIM::compare_enable()
 474:mculib3/src/periph/tim_f0_f4.h **** {
 475:mculib3/src/periph/tim_f0_f4.h ****    if      constexpr  (c == Channel::_1) CCER.CC1E = true;
 476:mculib3/src/periph/tim_f0_f4.h ****    else if constexpr (c == Channel::_2) CCER.CC2E = true;
 477:mculib3/src/periph/tim_f0_f4.h ****    else if constexpr (c == Channel::_3) CCER.CC3E = true;
 478:mculib3/src/periph/tim_f0_f4.h ****    else if constexpr (c == Channel::_4) CCER.CC4E = true;
 479:mculib3/src/periph/tim_f0_f4.h ****    return *this;
 480:mculib3/src/periph/tim_f0_f4.h **** }
 481:mculib3/src/periph/tim_f0_f4.h **** 
 482:mculib3/src/periph/tim_f0_f4.h **** template<TIM::Channel c> TIM& TIM::compare_disable()
 483:mculib3/src/periph/tim_f0_f4.h **** {
 484:mculib3/src/periph/tim_f0_f4.h ****    if      constexpr (c == Channel::_1) CCER.CC1E = false;
 485:mculib3/src/periph/tim_f0_f4.h ****    else if constexpr (c == Channel::_2) CCER.CC2E = false;
 486:mculib3/src/periph/tim_f0_f4.h ****    else if constexpr (c == Channel::_3) CCER.CC3E = false;
 487:mculib3/src/periph/tim_f0_f4.h ****    else if constexpr (c == Channel::_4) CCER.CC4E = false;
 488:mculib3/src/periph/tim_f0_f4.h ****    return *this;
 489:mculib3/src/periph/tim_f0_f4.h **** }
 490:mculib3/src/periph/tim_f0_f4.h **** 
 491:mculib3/src/periph/tim_f0_f4.h **** TIM& TIM::interrupt_enable(TIM::Channel c)
 492:mculib3/src/periph/tim_f0_f4.h **** {
ARM GAS  /tmp/cc5K8h45.s 			page 70


 1582              		.loc 15 492 1 is_stmt 1 view -0
 1583              		.cfi_startproc
 1584              		@ args = 0, pretend = 0, frame = 0
 1585              		@ frame_needed = 0, uses_anonymous_args = 0
 1586              		@ link register save eliminated.
 493:mculib3/src/periph/tim_f0_f4.h ****    if      (c == Channel::_1) DIER.CC1IE = true;
 1587              		.loc 15 493 4 view .LVU354
 1588 0000 0129     		cmp	r1, #1
 1589 0002 04D1     		bne	.L106
 1590              		.loc 15 493 31 discriminator 1 view .LVU355
 1591              		.loc 15 493 42 is_stmt 0 discriminator 1 view .LVU356
 1592 0004 0223     		movs	r3, #2
 1593 0006 C268     		ldr	r2, [r0, #12]
 1594              	.L110:
 494:mculib3/src/periph/tim_f0_f4.h ****    else if (c == Channel::_2) DIER.CC2IE = true;
 495:mculib3/src/periph/tim_f0_f4.h ****    else if (c == Channel::_3) DIER.CC3IE = true;
 496:mculib3/src/periph/tim_f0_f4.h ****    else if (c == Channel::_4) DIER.CC4IE = true;
 1595              		.loc 15 496 42 discriminator 1 view .LVU357
 1596 0008 1343     		orrs	r3, r2
 1597 000a C360     		str	r3, [r0, #12]
 1598              	.L107:
 497:mculib3/src/periph/tim_f0_f4.h ****    return *this;
 1599              		.loc 15 497 4 is_stmt 1 view .LVU358
 498:mculib3/src/periph/tim_f0_f4.h **** }
 1600              		.loc 15 498 1 is_stmt 0 view .LVU359
 1601              		@ sp needed
 1602 000c 7047     		bx	lr
 1603              	.L106:
 494:mculib3/src/periph/tim_f0_f4.h ****    else if (c == Channel::_2) DIER.CC2IE = true;
 1604              		.loc 15 494 9 is_stmt 1 view .LVU360
 1605 000e 0229     		cmp	r1, #2
 1606 0010 02D1     		bne	.L108
 494:mculib3/src/periph/tim_f0_f4.h ****    else if (c == Channel::_2) DIER.CC2IE = true;
 1607              		.loc 15 494 31 discriminator 1 view .LVU361
 494:mculib3/src/periph/tim_f0_f4.h ****    else if (c == Channel::_2) DIER.CC2IE = true;
 1608              		.loc 15 494 42 is_stmt 0 discriminator 1 view .LVU362
 1609 0012 0423     		movs	r3, #4
 1610 0014 C268     		ldr	r2, [r0, #12]
 1611 0016 F7E7     		b	.L110
 1612              	.L108:
 495:mculib3/src/periph/tim_f0_f4.h ****    else if (c == Channel::_4) DIER.CC4IE = true;
 1613              		.loc 15 495 9 is_stmt 1 view .LVU363
 1614 0018 0329     		cmp	r1, #3
 1615 001a 02D1     		bne	.L109
 495:mculib3/src/periph/tim_f0_f4.h ****    else if (c == Channel::_4) DIER.CC4IE = true;
 1616              		.loc 15 495 31 discriminator 1 view .LVU364
 495:mculib3/src/periph/tim_f0_f4.h ****    else if (c == Channel::_4) DIER.CC4IE = true;
 1617              		.loc 15 495 42 is_stmt 0 discriminator 1 view .LVU365
 1618 001c 0823     		movs	r3, #8
 1619 001e C268     		ldr	r2, [r0, #12]
 1620 0020 F2E7     		b	.L110
 1621              	.L109:
 496:mculib3/src/periph/tim_f0_f4.h ****    return *this;
 1622              		.loc 15 496 9 is_stmt 1 view .LVU366
 1623 0022 0429     		cmp	r1, #4
 1624 0024 F2D1     		bne	.L107
 496:mculib3/src/periph/tim_f0_f4.h ****    return *this;
ARM GAS  /tmp/cc5K8h45.s 			page 71


 1625              		.loc 15 496 31 discriminator 1 view .LVU367
 496:mculib3/src/periph/tim_f0_f4.h ****    return *this;
 1626              		.loc 15 496 42 is_stmt 0 discriminator 1 view .LVU368
 1627 0026 1023     		movs	r3, #16
 1628 0028 C268     		ldr	r2, [r0, #12]
 1629 002a EDE7     		b	.L110
 1630              		.cfi_endproc
 1631              	.LFE3773:
 1633              		.section	.text._ZN3mcu3TIM10is_compareENS0_7ChannelE,"ax",%progbits
 1634              		.align	1
 1635              		.global	_ZN3mcu3TIM10is_compareENS0_7ChannelE
 1636              		.syntax unified
 1637              		.code	16
 1638              		.thumb_func
 1639              		.fpu softvfp
 1641              	_ZN3mcu3TIM10is_compareENS0_7ChannelE:
 1642              	.LVL107:
 1643              	.LFB3774:
 499:mculib3/src/periph/tim_f0_f4.h **** 
 500:mculib3/src/periph/tim_f0_f4.h **** bool TIM::is_compare (TIM::Channel c)
 501:mculib3/src/periph/tim_f0_f4.h **** {
 1644              		.loc 15 501 1 is_stmt 1 view -0
 1645              		.cfi_startproc
 1646              		@ args = 0, pretend = 0, frame = 0
 1647              		@ frame_needed = 0, uses_anonymous_args = 0
 1648              		@ link register save eliminated.
 502:mculib3/src/periph/tim_f0_f4.h ****    if      (c == Channel::_1) return CCER.CC1E;
 1649              		.loc 15 502 4 view .LVU370
 501:mculib3/src/periph/tim_f0_f4.h ****    if      (c == Channel::_1) return CCER.CC1E;
 1650              		.loc 15 501 1 is_stmt 0 view .LVU371
 1651 0000 0300     		movs	r3, r0
 1652              		.loc 15 502 4 view .LVU372
 1653 0002 0129     		cmp	r1, #1
 1654 0004 03D1     		bne	.L112
 1655              		.loc 15 502 31 is_stmt 1 discriminator 1 view .LVU373
 1656              		.loc 15 502 43 is_stmt 0 discriminator 1 view .LVU374
 1657 0006 006A     		ldr	r0, [r0, #32]
 1658              	.LVL108:
 1659              		.loc 15 502 43 discriminator 1 view .LVU375
 1660 0008 C007     		lsls	r0, r0, #31
 1661              	.L117:
 503:mculib3/src/periph/tim_f0_f4.h ****    else if (c == Channel::_2) return CCER.CC2E;
 504:mculib3/src/periph/tim_f0_f4.h ****    else if (c == Channel::_3) return CCER.CC3E;
 505:mculib3/src/periph/tim_f0_f4.h ****    else if (c == Channel::_4) return CCER.CC4E;
 1662              		.loc 15 505 43 discriminator 1 view .LVU376
 1663 000a C00F     		lsrs	r0, r0, #31
 1664              	.L113:
 506:mculib3/src/periph/tim_f0_f4.h ****    else return false;
 507:mculib3/src/periph/tim_f0_f4.h **** }
 1665              		.loc 15 507 1 view .LVU377
 1666              		@ sp needed
 1667 000c 7047     		bx	lr
 1668              	.LVL109:
 1669              	.L112:
 503:mculib3/src/periph/tim_f0_f4.h ****    else if (c == Channel::_2) return CCER.CC2E;
 1670              		.loc 15 503 9 is_stmt 1 view .LVU378
 1671 000e 0229     		cmp	r1, #2
ARM GAS  /tmp/cc5K8h45.s 			page 72


 1672 0010 02D1     		bne	.L114
 503:mculib3/src/periph/tim_f0_f4.h ****    else if (c == Channel::_2) return CCER.CC2E;
 1673              		.loc 15 503 31 discriminator 1 view .LVU379
 503:mculib3/src/periph/tim_f0_f4.h ****    else if (c == Channel::_2) return CCER.CC2E;
 1674              		.loc 15 503 43 is_stmt 0 discriminator 1 view .LVU380
 1675 0012 006A     		ldr	r0, [r0, #32]
 1676              	.LVL110:
